EXPORTS
    _Z5clampIfET_S0_S0_S0_ @1
    _ZN10vehiculeAI11applyMatrixEv @2
    _ZN10vehiculeAI11getPositionEv @3
    _ZN10vehiculeAI11setLocationEf @4
    _ZN10vehiculeAI15followWayPointsEf @5
    _ZN10vehiculeAI4drawEP12SDL_RendereriiRK6CameraRSt6vectorI8TriangleSaIS6_EE @6
    _ZN10vehiculeAI6updateEv @7
    _ZN10vehiculeAI8setSpeedEf @8
    _ZN10vehiculeAIC1ERKSsRKSt6vectorI8vector3dSaIS3_EES3_ @9
    _ZN10vehiculeAIC2ERKSsRKSt6vectorI8vector3dSaIS3_EES3_ @10
    _ZN10vehiculeAID1Ev @11
    _ZN10vehiculeAID2Ev @12
    _ZN11porte_vitre4drawEv @13
    _ZN11porte_vitre6updateEv @14
    _ZN11porte_vitreC1EPKc @15
    _ZN11porte_vitreC2EPKc @16
    _ZN11porte_vitreD1Ev @17
    _ZN11porte_vitreD2Ev @18
    _ZN2tb11applyMatrixE8vector3dS0_ @19
    _ZN2tb4drawEP12SDL_RendereriiRK6CameraRSt6vectorI8TriangleSaIS6_EE @20
    _ZN2tb6updateEv @21
    _ZN2tbC1EPKc @22
    _ZN2tbC2EPKc @23
    _ZN2tbD1Ev @24
    _ZN2tbD2Ev @25
    _ZN4roue11applyMatrixEv @26
    _ZN4roue11getRotationEv @27
    _ZN4roue11setLocationE8vector3d @28
    _ZN4roue12setRotationyEf @29
    _ZN4roue12setRotationzEf @30
    _ZN4roue16setRotationyegalEf @31
    _ZN4roue16setRotationzegalEf @32
    _ZN4roue4drawEP12SDL_RendereriiRK6CameraRSt6vectorI8TriangleSaIS6_EE @33
    _ZN4roue6updateEv @34
    _ZN4roueC1E8vector3d @35
    _ZN4roueC2E8vector3d @36
    _ZN4roueD1Ev @37
    _ZN4roueD2Ev @38
    _ZN5porte11getRotPorteEv @39
    _ZN5porte11setRotPorteEf @40
    _ZN5porte15setRotPorteEgalEf @41
    _ZN5porte4drawEv @42
    _ZN5porte6updateEv @43
    _ZN5porteC1EPKc @44
    _ZN5porteC2EPKc @45
    _ZN5porteD1Ev @46
    _ZN5porteD2Ev @47
    _ZN6Camera11moveForwardEf @48
    _ZN6Camera11rotatePitchEf @49
    _ZN6Camera11setPositionE8vector3d @50
    _ZN6Camera12updateAnglesEff @51
    _ZN6Camera5getUpEv @52
    _ZN6Camera5setUpE8vector3d @53
    _ZN6Camera6getYawEv @54
    _ZN6Camera6moveUpEf @55
    _ZN6Camera6setYawEf @56
    _ZN6Camera8getPitchEv @57
    _ZN6Camera8setPitchEf @58
    _ZN6Camera9getTargetEv @59
    _ZN6Camera9moveRightEf @60
    _ZN6Camera9rotateYawEf @61
    _ZN6Camera9setTargetE8vector3d @62
    _ZN6CameraC1Ev @63
    _ZN6CameraC2Ev @64
    _ZN6CameraD1Ev @65
    _ZN6CameraD2Ev @66
    _ZN6vitres4drawEv @67
    _ZN6vitres6updateEv @68
    _ZN6vitresC1Ev @69
    _ZN6vitresC2Ev @70
    _ZN6vitresD1Ev @71
    _ZN6vitresD2Ev @72
    _ZN6volant4drawEv @73
    _ZN6volant6updateEv @74
    _ZN6volantC1Ev @75
    _ZN6volantC2Ev @76
    _ZN6volantD1Ev @77
    _ZN6volantD2Ev @78
    _ZN8MaterialC1ERKS_ @79
    _ZN8MaterialD1Ev @80
    _ZN8TriangleC1ERKS_ @81
    _ZN8TriangleD1Ev @82
    _ZN8vector3d12crossproductERKS_ @83
    _ZN8vector3d6changeES_ @84
    _ZN8vector3d6changeEfff @85
    _ZN8vector3d6lengthEv @86
    _ZN8vector3d7changeXEf @87
    _ZN8vector3d7changeYEf @88
    _ZN8vector3d7changeZEf @89
    _ZN8vector3d7reflectERKS_ @90
    _ZN8vector3d9normaliseERKS_ @91
    _ZN8vector3d9normalizeEv @92
    _ZN8vector3dC1Eff @93
    _ZN8vector3dC1Efff @94
    _ZN8vector3dC1Ev @95
    _ZN8vector3dC2Eff @96
    _ZN8vector3dC2Efff @97
    _ZN8vector3dC2Ev @98
    _ZN8vector3dD1Ev @99
    _ZN8vector3ddVERKf @100
    _ZN8vector3ddvERKf @101
    _ZN8vector3dmIERKS_ @102
    _ZN8vector3dmLERKf @103
    _ZN8vector3dneERKS_ @104
    _ZN8vector3dpLERKS_ @105
    _ZN8vector4dC1Effff @106
    _ZN8vector4dC1Ev @107
    _ZN8vector4dC2Effff @108
    _ZN8vector4dC2Ev @109
    _ZN9Matrix4x410setScalingEfff @110
    _ZN9Matrix4x411setRotationEfff @111
    _ZN9Matrix4x412setRotationXEf @112
    _ZN9Matrix4x412setRotationYEf @113
    _ZN9Matrix4x412setRotationZEf @114
    _ZN9Matrix4x414setTranslationEfff @115
    _ZN9Matrix4x49setColumnEiRK8vector3d @116
    _ZN9Matrix4x4C1EPA4_f @117
    _ZN9Matrix4x4C1Ev @118
    _ZN9Matrix4x4C2EPA4_f @119
    _ZN9Matrix4x4C2Ev @120
    _ZN9__gnu_cxx13new_allocatorI8TriangleE10deallocateEPS1_y @121
    _ZN9__gnu_cxx13new_allocatorI8TriangleE7destroyIS1_EEvPT_ @122
    _ZN9__gnu_cxx13new_allocatorI8TriangleE8allocateEyPKv @123
    _ZN9__gnu_cxx13new_allocatorI8TriangleE9constructIS1_IRKS1_EEEvPT_DpOT0_ @124
    _ZN9__gnu_cxx13new_allocatorI8TriangleEC2Ev @125
    _ZN9__gnu_cxx13new_allocatorI8TriangleED2Ev @126
    _ZN9__gnu_cxx13new_allocatorI8vector3dE10deallocateEPS1_y @127
    _ZN9__gnu_cxx13new_allocatorI8vector3dE8allocateEyPKv @128
    _ZN9__gnu_cxx13new_allocatorI8vector3dEC2Ev @129
    _ZN9__gnu_cxx13new_allocatorI8vector3dED2Ev @130
    _ZN9__gnu_cxx13new_allocatorIP4roueE10deallocateEPS2_y @131
    _ZN9__gnu_cxx13new_allocatorIP4roueE7destroyIS2_EEvPT_ @132
    _ZN9__gnu_cxx13new_allocatorIP4roueE8allocateEyPKv @133
    _ZN9__gnu_cxx13new_allocatorIP4roueE9constructIS2_IS2_EEEvPT_DpOT0_ @134
    _ZN9__gnu_cxx13new_allocatorIP4roueEC2Ev @135
    _ZN9__gnu_cxx13new_allocatorIP4roueED2Ev @136
    _ZN9__gnu_cxx14__alloc_traitsISaI8vector3dEE15_S_always_equalEv @137
    _ZN9__gnu_cxx14__alloc_traitsISaI8vector3dEE27_S_propagate_on_copy_assignEv @138
    _ZN9__gnu_cxx17__normal_iteratorIP8TriangleSt6vectorIS1_SaIS1_EEEC1ERKS2_ @139
    _ZN9__gnu_cxx17__normal_iteratorIP8TriangleSt6vectorIS1_SaIS1_EEEppEv @140
    _ZN9__gnu_cxx17__normal_iteratorIP8vector3dSt6vectorIS1_SaIS1_EEEC1ERKS2_ @141
    _ZN9__gnu_cxx17__normal_iteratorIP8vector3dSt6vectorIS1_SaIS1_EEEppEv @142
    _ZN9__gnu_cxx17__normal_iteratorIPK8vector3dSt6vectorIS1_SaIS1_EEEC1ERKS3_ @143
    _ZN9__gnu_cxx17__normal_iteratorIPK8vector3dSt6vectorIS1_SaIS1_EEEppEv @144
    _ZN9__gnu_cxxeqIPK8vector3dSt6vectorIS1_SaIS1_EEEEbRKNS_17__normal_iteratorIT_T0_EESC_ @145
    _ZN9__gnu_cxxneIP8TriangleSt6vectorIS1_SaIS1_EEEEbRKNS_17__normal_iteratorIT_T0_EESB_ @146
    _ZN9__gnu_cxxneIP8vector3dSt6vectorIS1_SaIS1_EEEEbRKNS_17__normal_iteratorIT_T0_EESB_ @147
    _ZN9__gnu_cxxneIPK8vector3dSt6vectorIS1_SaIS1_EEEEbRKNS_17__normal_iteratorIT_T0_EESC_ @148
    _ZNK10vehiculeAI15isInViewFrustumERK6Camera @149
    _ZNK6Camera11getPositionEv @150
    _ZNK6Camera13getViewMatrixERKS_i @151
    _ZNK6Camera14getOrientationER8vector3dS1_S1_ @152
    _ZNK6Camera15applyViewMatrixERK8vector3dRKS_ @153
    _ZNK6Camera19getProjectionMatrixEv @154
    _ZNK8vector3d10dotproductERKS_ @155
    _ZNK8vector3d3dotERKS_S1_ @156
    _ZNK8vector3d5crossERKS_S1_ @157
    _ZNK8vector3deqERKS_ @158
    _ZNK8vector3dixEi @159
    _ZNK8vector3dltERKS_ @160
    _ZNK8vector3dmiERKS_ @161
    _ZNK8vector3dmlERKf @162
    _ZNK8vector3dplERKS_ @163
    _ZNK8vector4d9normalizeEv @164
    _ZNK8vector4dmiERKS_ @165
    _ZNK8vector4dmlEf @166
    _ZNK8vector4dplERKS_ @167
    _ZNK9Matrix4x415transformVectorERK8vector3d @168
    _ZNK9Matrix4x45applyERK8vector3d @169
    _ZNK9Matrix4x47inverseEv @170
    _ZNK9Matrix4x48multiplyERK8vector3d @171
    _ZNK9Matrix4x4mlERK8vector3d @172
    _ZNK9Matrix4x4mlERKS_ @173
    _ZNK9__gnu_cxx13new_allocatorI8TriangleE8max_sizeEv @174
    _ZNK9__gnu_cxx13new_allocatorI8vector3dE8max_sizeEv @175
    _ZNK9__gnu_cxx13new_allocatorIP4roueE8max_sizeEv @176
    _ZNK9__gnu_cxx17__normal_iteratorIP8TriangleSt6vectorIS1_SaIS1_EEE4baseEv @177
    _ZNK9__gnu_cxx17__normal_iteratorIP8TriangleSt6vectorIS1_SaIS1_EEEdeEv @178
    _ZNK9__gnu_cxx17__normal_iteratorIP8vector3dSt6vectorIS1_SaIS1_EEE4baseEv @179
    _ZNK9__gnu_cxx17__normal_iteratorIP8vector3dSt6vectorIS1_SaIS1_EEEdeEv @180
    _ZNK9__gnu_cxx17__normal_iteratorIPK8vector3dSt6vectorIS1_SaIS1_EEE4baseEv @181
    _ZNK9__gnu_cxx17__normal_iteratorIPK8vector3dSt6vectorIS1_SaIS1_EEEdeEv @182
    _ZNKSt12_Vector_baseI8TriangleSaIS0_EE19_M_get_Tp_allocatorEv @183
    _ZNKSt12_Vector_baseI8vector3dSaIS0_EE19_M_get_Tp_allocatorEv @184
    _ZNKSt12_Vector_baseIP4roueSaIS1_EE19_M_get_Tp_allocatorEv @185
    _ZNKSt13move_iteratorIPP4roueE4baseEv @186
    _ZNKSt13move_iteratorIPP4roueEdeEv @187
    _ZNKSt6vectorI8TriangleSaIS0_EE12_M_check_lenEyPKc @188
    _ZNKSt6vectorI8TriangleSaIS0_EE4sizeEv @189
    _ZNKSt6vectorI8TriangleSaIS0_EE8max_sizeEv @190
    _ZNKSt6vectorI8vector3dSaIS0_EE3endEv @191
    _ZNKSt6vectorI8vector3dSaIS0_EE4sizeEv @192
    _ZNKSt6vectorI8vector3dSaIS0_EE5beginEv @193
    _ZNKSt6vectorI8vector3dSaIS0_EE5emptyEv @194
    _ZNKSt6vectorI8vector3dSaIS0_EE8capacityEv @195
    _ZNKSt6vectorI8vector3dSaIS0_EEixEy @196
    _ZNKSt6vectorIP4roueSaIS1_EE12_M_check_lenEyPKc @197
    _ZNKSt6vectorIP4roueSaIS1_EE4sizeEv @198
    _ZNKSt6vectorIP4roueSaIS1_EE8max_sizeEv @199
    _ZNSaI8TriangleEC2Ev @200
    _ZNSaI8TriangleED2Ev @201
    _ZNSaI8vector3dEC2Ev @202
    _ZNSaI8vector3dED2Ev @203
    _ZNSaIP4roueEC2Ev @204
    _ZNSaIP4roueED2Ev @205
    _ZNSt10_Iter_baseIN9__gnu_cxx17__normal_iteratorIP8vector3dSt6vectorIS2_SaIS2_EEEELb1EE7_S_baseES7_ @206
    _ZNSt10_Iter_baseIN9__gnu_cxx17__normal_iteratorIPK8vector3dSt6vectorIS2_SaIS2_EEEELb0EE7_S_baseES8_ @207
    _ZNSt10_Iter_baseIN9__gnu_cxx17__normal_iteratorIPK8vector3dSt6vectorIS2_SaIS2_EEEELb1EE7_S_baseES8_ @208
    _ZNSt10_Iter_baseIP8vector3dLb0EE7_S_baseES1_ @209
    _ZNSt11__copy_moveILb0ELb0ESt26random_access_iterator_tagE8__copy_mIP8vector3dS4_EET0_T_S6_S5_ @210
    _ZNSt11__copy_moveILb0ELb0ESt26random_access_iterator_tagE8__copy_mIPK8vector3dPS3_EET0_T_S8_S7_ @211
    _ZNSt12_Destroy_auxILb0EE9__destroyIN9__gnu_cxx17__normal_iteratorIP8vector3dSt6vectorIS4_SaIS4_EEEEEEvT_SA_ @212
    _ZNSt12_Destroy_auxILb0EE9__destroyIP8TriangleEEvT_S4_ @213
    _ZNSt12_Destroy_auxILb0EE9__destroyIP8vector3dEEvT_S4_ @214
    _ZNSt12_Destroy_auxILb1EE9__destroyIPP4roueEEvT_S5_ @215
    _ZNSt12_Vector_baseI8TriangleSaIS0_EE11_M_allocateEy @216
    _ZNSt12_Vector_baseI8TriangleSaIS0_EE12_Vector_implC1Ev @217
    _ZNSt12_Vector_baseI8TriangleSaIS0_EE12_Vector_implD1Ev @218
    _ZNSt12_Vector_baseI8TriangleSaIS0_EE13_M_deallocateEPS0_y @219
    _ZNSt12_Vector_baseI8TriangleSaIS0_EE19_M_get_Tp_allocatorEv @220
    _ZNSt12_Vector_baseI8TriangleSaIS0_EEC2Ev @221
    _ZNSt12_Vector_baseI8TriangleSaIS0_EED2Ev @222
    _ZNSt12_Vector_baseI8vector3dSaIS0_EE11_M_allocateEy @223
    _ZNSt12_Vector_baseI8vector3dSaIS0_EE12_Vector_implC1Ev @224
    _ZNSt12_Vector_baseI8vector3dSaIS0_EE12_Vector_implD1Ev @225
    _ZNSt12_Vector_baseI8vector3dSaIS0_EE13_M_deallocateEPS0_y @226
    _ZNSt12_Vector_baseI8vector3dSaIS0_EE19_M_get_Tp_allocatorEv @227
    _ZNSt12_Vector_baseI8vector3dSaIS0_EEC2Ev @228
    _ZNSt12_Vector_baseI8vector3dSaIS0_EED2Ev @229
    _ZNSt12_Vector_baseIP4roueSaIS1_EE11_M_allocateEy @230
    _ZNSt12_Vector_baseIP4roueSaIS1_EE12_Vector_implC1Ev @231
    _ZNSt12_Vector_baseIP4roueSaIS1_EE12_Vector_implD1Ev @232
    _ZNSt12_Vector_baseIP4roueSaIS1_EE13_M_deallocateEPS1_y @233
    _ZNSt12_Vector_baseIP4roueSaIS1_EE19_M_get_Tp_allocatorEv @234
    _ZNSt12_Vector_baseIP4roueSaIS1_EEC2Ev @235
    _ZNSt12_Vector_baseIP4roueSaIS1_EED2Ev @236
    _ZNSt13move_iteratorIPP4roueEC1ES2_ @237
    _ZNSt13move_iteratorIPP4roueEppEv @238
    _ZNSt16allocator_traitsISaI8TriangleEE10_S_destroyIS0_EENSt9enable_ifIXsrSt6__and_IINS2_16__destroy_helperIT_E4typeEEE5valueEvE4typeERS1_PS7_ @239
    _ZNSt16allocator_traitsISaI8TriangleEE10deallocateERS1_PS0_y @240
    _ZNSt16allocator_traitsISaI8TriangleEE11_S_max_sizeIKS1_vEEyRT_i @241
    _ZNSt16allocator_traitsISaI8TriangleEE12_S_constructIS0_IRKS0_EEENSt9enable_ifIXsrSt6__and_IINS2_18__construct_helperIT_IDpT0_EE4typeEEE5valueEvE4typeERS1_PS9_DpOSA_ @242
    _ZNSt16allocator_traitsISaI8TriangleEE7destroyIS0_EEvRS1_PT_ @243
    _ZNSt16allocator_traitsISaI8TriangleEE8allocateERS1_y @244
    _ZNSt16allocator_traitsISaI8TriangleEE8max_sizeERKS1_ @245
    _ZNSt16allocator_traitsISaI8TriangleEE9constructIS0_IRKS0_EEEDTcl12_S_constructfp_fp0_spcl7forwardIT0_Efp1_EEERS1_PT_DpOS6_ @246
    _ZNSt16allocator_traitsISaI8vector3dEE10deallocateERS1_PS0_y @247
    _ZNSt16allocator_traitsISaI8vector3dEE8allocateERS1_y @248
    _ZNSt16allocator_traitsISaIP4roueEE10_S_destroyIS1_EENSt9enable_ifIXsrSt6__and_IINS3_16__destroy_helperIT_E4typeEEE5valueEvE4typeERS2_PS8_ @249
    _ZNSt16allocator_traitsISaIP4roueEE10deallocateERS2_PS1_y @250
    _ZNSt16allocator_traitsISaIP4roueEE11_S_max_sizeIKS2_vEEyRT_i @251
    _ZNSt16allocator_traitsISaIP4roueEE12_S_constructIS1_IS1_EEENSt9enable_ifIXsrSt6__and_IINS3_18__construct_helperIT_IDpT0_EE4typeEEE5valueEvE4typeERS2_PS8_DpOS9_ @252
    _ZNSt16allocator_traitsISaIP4roueEE7destroyIS1_EEvRS2_PT_ @253
    _ZNSt16allocator_traitsISaIP4roueEE8allocateERS2_y @254
    _ZNSt16allocator_traitsISaIP4roueEE8max_sizeERKS2_ @255
    _ZNSt16allocator_traitsISaIP4roueEE9constructIS1_IS1_EEEDTcl12_S_constructfp_fp0_spcl7forwardIT0_Efp1_EEERS2_PT_DpOS5_ @256
    _ZNSt20__uninitialized_copyILb0EE13__uninit_copyIN9__gnu_cxx17__normal_iteratorIPK8vector3dSt6vectorIS4_SaIS4_EEEEPS4_EET0_T_SD_SC_ @257
    _ZNSt20__uninitialized_copyILb0EE13__uninit_copyIP8TriangleS3_EET0_T_S5_S4_ @258
    _ZNSt20__uninitialized_copyILb0EE13__uninit_copyIP8vector3dS3_EET0_T_S5_S4_ @259
    _ZNSt20__uninitialized_copyILb0EE13__uninit_copyISt13move_iteratorIPP4roueES5_EET0_T_S8_S7_ @260
    _ZNSt6vectorI8TriangleSaIS0_EE19_M_emplace_back_auxIIRKS0_EEEvDpOT_ @261
    _ZNSt6vectorI8TriangleSaIS0_EE3endEv @262
    _ZNSt6vectorI8TriangleSaIS0_EE5beginEv @263
    _ZNSt6vectorI8TriangleSaIS0_EE9push_backERKS0_ @264
    _ZNSt6vectorI8TriangleSaIS0_EEC1Ev @265
    _ZNSt6vectorI8TriangleSaIS0_EED1Ev @266
    _ZNSt6vectorI8vector3dSaIS0_EE15_M_erase_at_endEPS0_ @267
    _ZNSt6vectorI8vector3dSaIS0_EE20_M_allocate_and_copyIN9__gnu_cxx17__normal_iteratorIPKS0_S2_EEEEPS0_yT_SA_ @268
    _ZNSt6vectorI8vector3dSaIS0_EE3endEv @269
    _ZNSt6vectorI8vector3dSaIS0_EE5beginEv @270
    _ZNSt6vectorI8vector3dSaIS0_EE5clearEv @271
    _ZNSt6vectorI8vector3dSaIS0_EEC1Ev @272
    _ZNSt6vectorI8vector3dSaIS0_EED1Ev @273
    _ZNSt6vectorI8vector3dSaIS0_EEaSERKS2_ @274
    _ZNSt6vectorI8vector3dSaIS0_EEixEy @275
    _ZNSt6vectorIP4roueSaIS1_EE12emplace_backIIS1_EEEvDpOT_ @276
    _ZNSt6vectorIP4roueSaIS1_EE19_M_emplace_back_auxIIS1_EEEvDpOT_ @277
    _ZNSt6vectorIP4roueSaIS1_EE9push_backEOS1_ @278
    _ZNSt6vectorIP4roueSaIS1_EEC1Ev @279
    _ZNSt6vectorIP4roueSaIS1_EED1Ev @280
    _ZNSt6vectorIP4roueSaIS1_EEixEy @281
    _ZSt10_ConstructI8TriangleIRS0_EEvPT_DpOT0_ @282
    _ZSt10_ConstructI8vector3dIRKS0_EEvPT_DpOT0_ @283
    _ZSt10_ConstructI8vector3dIRS0_EEvPT_DpOT0_ @284
    _ZSt10_ConstructIP4roueIS1_EEvPT_DpOT0_ @285
    _ZSt11__addressofI8TriangleEPT_RS1_ @286
    _ZSt11__addressofI8vector3dEPT_RS1_ @287
    _ZSt11__addressofIP4roueEPT_RS2_ @288
    _ZSt12__miter_baseIN9__gnu_cxx17__normal_iteratorIPK8vector3dSt6vectorIS2_SaIS2_EEEEENSt11_Miter_baseIT_E13iterator_typeESA_ @289
    _ZSt12__miter_baseIP8vector3dENSt11_Miter_baseIT_E13iterator_typeES3_ @290
    _ZSt12__niter_baseIN9__gnu_cxx17__normal_iteratorIP8vector3dSt6vectorIS2_SaIS2_EEEEENSt11_Niter_baseIT_E13iterator_typeES9_ @291
    _ZSt12__niter_baseIN9__gnu_cxx17__normal_iteratorIPK8vector3dSt6vectorIS2_SaIS2_EEEEENSt11_Niter_baseIT_E13iterator_typeESA_ @292
    _ZSt12__niter_baseIP8vector3dENSt11_Niter_baseIT_E13iterator_typeES3_ @293
    _ZSt13__copy_move_aILb0EP8vector3dS1_ET1_T0_S3_S2_ @294
    _ZSt13__copy_move_aILb0EPK8vector3dPS0_ET1_T0_S5_S4_ @295
    _ZSt14__copy_move_a2ILb0EN9__gnu_cxx17__normal_iteratorIPK8vector3dSt6vectorIS2_SaIS2_EEEENS1_IPS2_S7_EEET1_T0_SC_SB_ @296
    _ZSt14__copy_move_a2ILb0EP8vector3dS1_ET1_T0_S3_S2_ @297
    _ZSt15__alloc_on_copyISaI8vector3dEEvRT_RKS2_ @298
    _ZSt18__do_alloc_on_copyISaI8vector3dEEvRT_RKS2_St17integral_constantIbLb0EE @299
    _ZSt18uninitialized_copyIN9__gnu_cxx17__normal_iteratorIPK8vector3dSt6vectorIS2_SaIS2_EEEEPS2_ET0_T_SB_SA_ @300
    _ZSt18uninitialized_copyIP8TriangleS1_ET0_T_S3_S2_ @301
    _ZSt18uninitialized_copyIP8vector3dS1_ET0_T_S3_S2_ @302
    _ZSt18uninitialized_copyISt13move_iteratorIPP4roueES3_ET0_T_S6_S5_ @303
    _ZSt22__uninitialized_copy_aIN9__gnu_cxx17__normal_iteratorIPK8vector3dSt6vectorIS2_SaIS2_EEEEPS2_S2_ET0_T_SB_SA_RSaIT1_E @304
    _ZSt22__uninitialized_copy_aIP8TriangleS1_S0_ET0_T_S3_S2_RSaIT1_E @305
    _ZSt22__uninitialized_copy_aIP8vector3dS1_S0_ET0_T_S3_S2_RSaIT1_E @306
    _ZSt22__uninitialized_copy_aISt13move_iteratorIPP4roueES3_S2_ET0_T_S6_S5_RSaIT1_E @307
    _ZSt32__make_move_if_noexcept_iteratorIP8TriangleS1_ET0_T_ @308
    _ZSt32__make_move_if_noexcept_iteratorIPP4roueSt13move_iteratorIS2_EET0_T_ @309
    _ZSt34__uninitialized_move_if_noexcept_aIP8TriangleS1_SaIS0_EET0_T_S4_S3_RT1_ @310
    _ZSt34__uninitialized_move_if_noexcept_aIPP4roueS2_SaIS1_EET0_T_S5_S4_RT1_ @311
    _ZSt3absf @312
    _ZSt3cosf @313
    _ZSt3maxIyERKT_S2_S2_ @314
    _ZSt3minIfERKT_S2_S2_ @315
    _ZSt3sinf @316
    _ZSt3tanf @317
    _ZSt4acosf @318
    _ZSt4copyIN9__gnu_cxx17__normal_iteratorIPK8vector3dSt6vectorIS2_SaIS2_EEEENS1_IPS2_S7_EEET0_T_SC_SB_ @319
    _ZSt4copyIP8vector3dS1_ET0_T_S3_S2_ @320
    _ZSt4moveIRP4roueEONSt16remove_referenceIT_E4typeEOS4_ @321
    _ZSt4sqrtf @322
    _ZSt4swapIfEvRT_S1_ @323
    _ZSt7forwardIP4roueEOT_RNSt16remove_referenceIS2_E4typeE @324
    _ZSt7forwardIR8TriangleEOT_RNSt16remove_referenceIS2_E4typeE @325
    _ZSt7forwardIR8vector3dEOT_RNSt16remove_referenceIS2_E4typeE @326
    _ZSt7forwardIRK8TriangleEOT_RNSt16remove_referenceIS3_E4typeE @327
    _ZSt7forwardIRK8vector3dEOT_RNSt16remove_referenceIS3_E4typeE @328
    _ZSt8_DestroyI8TriangleEvPT_ @329
    _ZSt8_DestroyI8vector3dEvPT_ @330
    _ZSt8_DestroyIN9__gnu_cxx17__normal_iteratorIP8vector3dSt6vectorIS2_SaIS2_EEEEEvT_S8_ @331
    _ZSt8_DestroyIN9__gnu_cxx17__normal_iteratorIP8vector3dSt6vectorIS2_SaIS2_EEEES2_EvT_S8_RSaIT0_E @332
    _ZSt8_DestroyIP8TriangleEvT_S2_ @333
    _ZSt8_DestroyIP8TriangleS0_EvT_S2_RSaIT0_E @334
    _ZSt8_DestroyIP8vector3dEvT_S2_ @335
    _ZSt8_DestroyIP8vector3dS0_EvT_S2_RSaIT0_E @336
    _ZSt8_DestroyIPP4roueEvT_S3_ @337
    _ZSt8_DestroyIPP4roueS1_EvT_S3_RSaIT0_E @338
    _ZSteqIPP4roueEbRKSt13move_iteratorIT_ES7_ @339
    _ZStneI8vector3dEbRKSaIT_ES4_ @340
    _ZStneIPP4roueEbRKSt13move_iteratorIT_ES7_ @341
    _ZTISt11logic_error @342 DATA
    _ZTISt12out_of_range @343 DATA
    _ZTISt9exception @344 DATA
    _ZTSSt11logic_error @345 DATA
    _ZTSSt12out_of_range @346 DATA
    _ZTSSt9exception @347 DATA
    _ZdlPvS_ @348
    _ZlsRSo8vector3d @349
    _ZnwyPv @350
    cam @351 DATA
