EXPORTS
    _ZN11porte_vitre4drawEv @1
    _ZN11porte_vitre6updateEv @2
    _ZN11porte_vitreC1EPKc @3
    _ZN11porte_vitreC2EPKc @4
    _ZN11porte_vitreD1Ev @5
    _ZN11porte_vitreD2Ev @6
    _ZN2tb11applyMatrixE8vector3dS0_ @7
    _ZN2tb4drawEP12SDL_RendereriiRK6CameraRSt6vectorI8TriangleSaIS6_EE @8
    _ZN2tb6updateEv @9
    _ZN2tbC1EPKc @10
    _ZN2tbC2EPKc @11
    _ZN2tbD1Ev @12
    _ZN2tbD2Ev @13
    _ZN4roue11applyMatrixEv @14
    _ZN4roue11getRotationEv @15
    _ZN4roue11setLocationE8vector3d @16
    _ZN4roue12setRotationyEf @17
    _ZN4roue12setRotationzEf @18
    _ZN4roue16setRotationyegalEf @19
    _ZN4roue16setRotationzegalEf @20
    _ZN4roue4drawEP12SDL_RendereriiRK6CameraRSt6vectorI8TriangleSaIS6_EE @21
    _ZN4roue6updateEv @22
    _ZN4roueC1E8vector3d @23
    _ZN4roueC2E8vector3d @24
    _ZN4roueD1Ev @25
    _ZN4roueD2Ev @26
    _ZN5porte11getRotPorteEv @27
    _ZN5porte11setRotPorteEf @28
    _ZN5porte15setRotPorteEgalEf @29
    _ZN5porte4drawEv @30
    _ZN5porte6updateEv @31
    _ZN5porteC1EPKc @32
    _ZN5porteC2EPKc @33
    _ZN5porteD1Ev @34
    _ZN5porteD2Ev @35
    _ZN6Camera11moveForwardEf @36
    _ZN6Camera11rotatePitchEf @37
    _ZN6Camera11setPositionE8vector3d @38
    _ZN6Camera12updateAnglesEff @39
    _ZN6Camera5getUpEv @40
    _ZN6Camera5setUpE8vector3d @41
    _ZN6Camera6getYawEv @42
    _ZN6Camera6moveUpEf @43
    _ZN6Camera6setYawEf @44
    _ZN6Camera8getPitchEv @45
    _ZN6Camera8setPitchEf @46
    _ZN6Camera9getTargetEv @47
    _ZN6Camera9moveRightEf @48
    _ZN6Camera9rotateYawEf @49
    _ZN6Camera9setTargetE8vector3d @50
    _ZN6CameraC1Ev @51
    _ZN6CameraC2Ev @52
    _ZN6CameraD1Ev @53
    _ZN6CameraD2Ev @54
    _ZN6vitres4drawEv @55
    _ZN6vitres6updateEv @56
    _ZN6vitresC1Ev @57
    _ZN6vitresC2Ev @58
    _ZN6vitresD1Ev @59
    _ZN6vitresD2Ev @60
    _ZN6volant4drawEv @61
    _ZN6volant6updateEv @62
    _ZN6volantC1Ev @63
    _ZN6volantC2Ev @64
    _ZN6volantD1Ev @65
    _ZN6volantD2Ev @66
    _ZN8MaterialC1ERKS_ @67
    _ZN8MaterialD1Ev @68
    _ZN8TriangleC1ERKS_ @69
    _ZN8TriangleD1Ev @70
    _ZN8vector3d12crossproductERKS_ @71
    _ZN8vector3d6changeES_ @72
    _ZN8vector3d6changeEfff @73
    _ZN8vector3d6lengthEv @74
    _ZN8vector3d7changeXEf @75
    _ZN8vector3d7changeYEf @76
    _ZN8vector3d7changeZEf @77
    _ZN8vector3d7reflectERKS_ @78
    _ZN8vector3d9normaliseERKS_ @79
    _ZN8vector3d9normalizeEv @80
    _ZN8vector3dC1Eff @81
    _ZN8vector3dC1Efff @82
    _ZN8vector3dC1Ev @83
    _ZN8vector3dC2Eff @84
    _ZN8vector3dC2Efff @85
    _ZN8vector3dC2Ev @86
    _ZN8vector3dD1Ev @87
    _ZN8vector3ddVERKf @88
    _ZN8vector3ddvERKf @89
    _ZN8vector3dmIERKS_ @90
    _ZN8vector3dmLERKf @91
    _ZN8vector3dneERKS_ @92
    _ZN8vector3dpLERKS_ @93
    _ZN8vector4dC1Effff @94
    _ZN8vector4dC1Ev @95
    _ZN8vector4dC2Effff @96
    _ZN8vector4dC2Ev @97
    _ZN8vehicule11applyMatrixEv @98
    _ZN8vehicule11controlLeftEv @99
    _ZN8vehicule11getPositionEv @100
    _ZN8vehicule11getRotationEv @101
    _ZN8vehicule11setLocationE8vector3d @102
    _ZN8vehicule11setLocationEf @103
    _ZN8vehicule12controlFreinEv @104
    _ZN8vehicule12controlRightEv @105
    _ZN8vehicule12getTrianglesEv @106
    _ZN8vehicule12ouvrirPorte1Ev @107
    _ZN8vehicule12ouvrirPorte2Ev @108
    _ZN8vehicule15getControlActifEv @109
    _ZN8vehicule15setControlActifEb @110
    _ZN8vehicule16getControlActif2Ev @111
    _ZN8vehicule16setControlActif2Eb @112
    _ZN8vehicule21passiveControlUp_DownEv @113
    _ZN8vehicule24passiveControlRight_LeftEv @114
    _ZN8vehicule4drawEP12SDL_RendereriiRK6CameraRSt6vectorI8TriangleSaIS6_EE @115
    _ZN8vehicule4moveEv @116
    _ZN8vehicule5getUpEv @117
    _ZN8vehicule5setUpEb @118
    _ZN8vehicule6setDirEi @119
    _ZN8vehicule6updateEv @120
    _ZN8vehicule7getDownEv @121
    _ZN8vehicule7getKeyCEv @122
    _ZN8vehicule7getKeyVEv @123
    _ZN8vehicule7getLeftEv @124
    _ZN8vehicule7setDownEb @125
    _ZN8vehicule7setKeyCEb @126
    _ZN8vehicule7setKeyVEb @127
    _ZN8vehicule7setLeftEb @128
    _ZN8vehicule8getRightEv @129
    _ZN8vehicule8getSpeedEv @130
    _ZN8vehicule8setRightEb @131
    _ZN8vehicule8setSpeedEf @132
    _ZN8vehicule9controlUpEv @133
    _ZN8vehiculeC1ERKSs8vector3d @134
    _ZN8vehiculeC2ERKSs8vector3d @135
    _ZN8vehiculeD1Ev @136
    _ZN8vehiculeD2Ev @137
    _ZN9Matrix4x410setScalingEfff @138
    _ZN9Matrix4x411setRotationEfff @139
    _ZN9Matrix4x412setRotationXEf @140
    _ZN9Matrix4x412setRotationYEf @141
    _ZN9Matrix4x412setRotationZEf @142
    _ZN9Matrix4x414setTranslationEfff @143
    _ZN9Matrix4x49setColumnEiRK8vector3d @144
    _ZN9Matrix4x4C1EPA4_f @145
    _ZN9Matrix4x4C1Ev @146
    _ZN9Matrix4x4C2EPA4_f @147
    _ZN9Matrix4x4C2Ev @148
    _ZN9__gnu_cxx13new_allocatorI8TriangleE10deallocateEPS1_y @149
    _ZN9__gnu_cxx13new_allocatorI8TriangleE7destroyIS1_EEvPT_ @150
    _ZN9__gnu_cxx13new_allocatorI8TriangleE8allocateEyPKv @151
    _ZN9__gnu_cxx13new_allocatorI8TriangleE9constructIS1_IRKS1_EEEvPT_DpOT0_ @152
    _ZN9__gnu_cxx13new_allocatorI8TriangleEC2ERKS2_ @153
    _ZN9__gnu_cxx13new_allocatorI8TriangleEC2Ev @154
    _ZN9__gnu_cxx13new_allocatorI8TriangleED2Ev @155
    _ZN9__gnu_cxx13new_allocatorI8vector3dE10deallocateEPS1_y @156
    _ZN9__gnu_cxx13new_allocatorI8vector3dEC2Ev @157
    _ZN9__gnu_cxx13new_allocatorI8vector3dED2Ev @158
    _ZN9__gnu_cxx13new_allocatorIP4roueE10deallocateEPS2_y @159
    _ZN9__gnu_cxx13new_allocatorIP4roueE7destroyIS2_EEvPT_ @160
    _ZN9__gnu_cxx13new_allocatorIP4roueE8allocateEyPKv @161
    _ZN9__gnu_cxx13new_allocatorIP4roueE9constructIS2_IS2_EEEvPT_DpOT0_ @162
    _ZN9__gnu_cxx13new_allocatorIP4roueEC2Ev @163
    _ZN9__gnu_cxx13new_allocatorIP4roueED2Ev @164
    _ZN9__gnu_cxx13new_allocatorIP5porteE10deallocateEPS2_y @165
    _ZN9__gnu_cxx13new_allocatorIP5porteEC2Ev @166
    _ZN9__gnu_cxx13new_allocatorIP5porteED2Ev @167
    _ZN9__gnu_cxx14__alloc_traitsISaI8TriangleEE17_S_select_on_copyERKS2_ @168
    _ZN9__gnu_cxx17__normal_iteratorIP8TriangleSt6vectorIS1_SaIS1_EEEC1ERKS2_ @169
    _ZN9__gnu_cxx17__normal_iteratorIP8TriangleSt6vectorIS1_SaIS1_EEEppEv @170
    _ZN9__gnu_cxx17__normal_iteratorIPK8TriangleSt6vectorIS1_SaIS1_EEEC1ERKS3_ @171
    _ZN9__gnu_cxx17__normal_iteratorIPK8TriangleSt6vectorIS1_SaIS1_EEEppEv @172
    _ZN9__gnu_cxxneIP8TriangleSt6vectorIS1_SaIS1_EEEEbRKNS_17__normal_iteratorIT_T0_EESB_ @173
    _ZN9__gnu_cxxneIPK8TriangleSt6vectorIS1_SaIS1_EEEEbRKNS_17__normal_iteratorIT_T0_EESC_ @174
    _ZNK6Camera11getPositionEv @175
    _ZNK6Camera13getViewMatrixERKS_i @176
    _ZNK6Camera14getOrientationER8vector3dS1_S1_ @177
    _ZNK6Camera15applyViewMatrixERK8vector3dRKS_ @178
    _ZNK6Camera19getProjectionMatrixEv @179
    _ZNK8vector3d10dotproductERKS_ @180
    _ZNK8vector3d3dotERKS_S1_ @181
    _ZNK8vector3d5crossERKS_S1_ @182
    _ZNK8vector3deqERKS_ @183
    _ZNK8vector3dixEi @184
    _ZNK8vector3dltERKS_ @185
    _ZNK8vector3dmiERKS_ @186
    _ZNK8vector3dmlERKf @187
    _ZNK8vector3dplERKS_ @188
    _ZNK8vector4d9normalizeEv @189
    _ZNK8vector4dmiERKS_ @190
    _ZNK8vector4dmlEf @191
    _ZNK8vector4dplERKS_ @192
    _ZNK8vehicule16getForwardVectorEv @193
    _ZNK9Matrix4x415transformVectorERK8vector3d @194
    _ZNK9Matrix4x45applyERK8vector3d @195
    _ZNK9Matrix4x47inverseEv @196
    _ZNK9Matrix4x48multiplyERK8vector3d @197
    _ZNK9Matrix4x4mlERK8vector3d @198
    _ZNK9Matrix4x4mlERKS_ @199
    _ZNK9__gnu_cxx13new_allocatorI8TriangleE8max_sizeEv @200
    _ZNK9__gnu_cxx13new_allocatorIP4roueE8max_sizeEv @201
    _ZNK9__gnu_cxx17__normal_iteratorIP8TriangleSt6vectorIS1_SaIS1_EEE4baseEv @202
    _ZNK9__gnu_cxx17__normal_iteratorIP8TriangleSt6vectorIS1_SaIS1_EEEdeEv @203
    _ZNK9__gnu_cxx17__normal_iteratorIPK8TriangleSt6vectorIS1_SaIS1_EEE4baseEv @204
    _ZNK9__gnu_cxx17__normal_iteratorIPK8TriangleSt6vectorIS1_SaIS1_EEEdeEv @205
    _ZNKSt12_Vector_baseI8TriangleSaIS0_EE19_M_get_Tp_allocatorEv @206
    _ZNKSt12_Vector_baseIP4roueSaIS1_EE19_M_get_Tp_allocatorEv @207
    _ZNKSt13move_iteratorIPP4roueE4baseEv @208
    _ZNKSt13move_iteratorIPP4roueEdeEv @209
    _ZNKSt6vectorI8TriangleSaIS0_EE12_M_check_lenEyPKc @210
    _ZNKSt6vectorI8TriangleSaIS0_EE3endEv @211
    _ZNKSt6vectorI8TriangleSaIS0_EE4sizeEv @212
    _ZNKSt6vectorI8TriangleSaIS0_EE5beginEv @213
    _ZNKSt6vectorI8TriangleSaIS0_EE8max_sizeEv @214
    _ZNKSt6vectorIP4roueSaIS1_EE12_M_check_lenEyPKc @215
    _ZNKSt6vectorIP4roueSaIS1_EE4sizeEv @216
    _ZNKSt6vectorIP4roueSaIS1_EE8max_sizeEv @217
    _ZNSaI8TriangleEC1ERKS0_ @218
    _ZNSaI8TriangleEC2ERKS0_ @219
    _ZNSaI8TriangleEC2Ev @220
    _ZNSaI8TriangleED1Ev @221
    _ZNSaI8TriangleED2Ev @222
    _ZNSaI8vector3dEC2Ev @223
    _ZNSaI8vector3dED2Ev @224
    _ZNSaIP4roueEC2Ev @225
    _ZNSaIP4roueED2Ev @226
    _ZNSaIP5porteEC2Ev @227
    _ZNSaIP5porteED2Ev @228
    _ZNSt12_Destroy_auxILb0EE9__destroyIP8TriangleEEvT_S4_ @229
    _ZNSt12_Destroy_auxILb0EE9__destroyIP8vector3dEEvT_S4_ @230
    _ZNSt12_Destroy_auxILb1EE9__destroyIPP4roueEEvT_S5_ @231
    _ZNSt12_Destroy_auxILb1EE9__destroyIPP5porteEEvT_S5_ @232
    _ZNSt12_Vector_baseI8TriangleSaIS0_EE11_M_allocateEy @233
    _ZNSt12_Vector_baseI8TriangleSaIS0_EE12_Vector_implC1ERKS1_ @234
    _ZNSt12_Vector_baseI8TriangleSaIS0_EE12_Vector_implC1Ev @235
    _ZNSt12_Vector_baseI8TriangleSaIS0_EE12_Vector_implD1Ev @236
    _ZNSt12_Vector_baseI8TriangleSaIS0_EE13_M_deallocateEPS0_y @237
    _ZNSt12_Vector_baseI8TriangleSaIS0_EE17_M_create_storageEy @238
    _ZNSt12_Vector_baseI8TriangleSaIS0_EE19_M_get_Tp_allocatorEv @239
    _ZNSt12_Vector_baseI8TriangleSaIS0_EEC2Ev @240
    _ZNSt12_Vector_baseI8TriangleSaIS0_EEC2EyRKS1_ @241
    _ZNSt12_Vector_baseI8TriangleSaIS0_EED2Ev @242
    _ZNSt12_Vector_baseI8vector3dSaIS0_EE12_Vector_implC1Ev @243
    _ZNSt12_Vector_baseI8vector3dSaIS0_EE12_Vector_implD1Ev @244
    _ZNSt12_Vector_baseI8vector3dSaIS0_EE13_M_deallocateEPS0_y @245
    _ZNSt12_Vector_baseI8vector3dSaIS0_EE19_M_get_Tp_allocatorEv @246
    _ZNSt12_Vector_baseI8vector3dSaIS0_EEC2Ev @247
    _ZNSt12_Vector_baseI8vector3dSaIS0_EED2Ev @248
    _ZNSt12_Vector_baseIP4roueSaIS1_EE11_M_allocateEy @249
    _ZNSt12_Vector_baseIP4roueSaIS1_EE12_Vector_implC1Ev @250
    _ZNSt12_Vector_baseIP4roueSaIS1_EE12_Vector_implD1Ev @251
    _ZNSt12_Vector_baseIP4roueSaIS1_EE13_M_deallocateEPS1_y @252
    _ZNSt12_Vector_baseIP4roueSaIS1_EE19_M_get_Tp_allocatorEv @253
    _ZNSt12_Vector_baseIP4roueSaIS1_EEC2Ev @254
    _ZNSt12_Vector_baseIP4roueSaIS1_EED2Ev @255
    _ZNSt12_Vector_baseIP5porteSaIS1_EE12_Vector_implC1Ev @256
    _ZNSt12_Vector_baseIP5porteSaIS1_EE12_Vector_implD1Ev @257
    _ZNSt12_Vector_baseIP5porteSaIS1_EE13_M_deallocateEPS1_y @258
    _ZNSt12_Vector_baseIP5porteSaIS1_EE19_M_get_Tp_allocatorEv @259
    _ZNSt12_Vector_baseIP5porteSaIS1_EEC2Ev @260
    _ZNSt12_Vector_baseIP5porteSaIS1_EED2Ev @261
    _ZNSt13move_iteratorIPP4roueEC1ES2_ @262
    _ZNSt13move_iteratorIPP4roueEppEv @263
    _ZNSt16allocator_traitsISaI8TriangleEE10_S_destroyIS0_EENSt9enable_ifIXsrSt6__and_IINS2_16__destroy_helperIT_E4typeEEE5valueEvE4typeERS1_PS7_ @264
    _ZNSt16allocator_traitsISaI8TriangleEE10deallocateERS1_PS0_y @265
    _ZNSt16allocator_traitsISaI8TriangleEE11_S_max_sizeIKS1_vEEyRT_i @266
    _ZNSt16allocator_traitsISaI8TriangleEE12_S_constructIS0_IRKS0_EEENSt9enable_ifIXsrSt6__and_IINS2_18__construct_helperIT_IDpT0_EE4typeEEE5valueEvE4typeERS1_PS9_DpOSA_ @267
    _ZNSt16allocator_traitsISaI8TriangleEE37select_on_container_copy_constructionERKS1_ @268
    _ZNSt16allocator_traitsISaI8TriangleEE7destroyIS0_EEvRS1_PT_ @269
    _ZNSt16allocator_traitsISaI8TriangleEE8allocateERS1_y @270
    _ZNSt16allocator_traitsISaI8TriangleEE8max_sizeERKS1_ @271
    _ZNSt16allocator_traitsISaI8TriangleEE9_S_selectIKS1_vEET_RS5_z @272
    _ZNSt16allocator_traitsISaI8TriangleEE9constructIS0_IRKS0_EEEDTcl12_S_constructfp_fp0_spcl7forwardIT0_Efp1_EEERS1_PT_DpOS6_ @273
    _ZNSt16allocator_traitsISaI8vector3dEE10deallocateERS1_PS0_y @274
    _ZNSt16allocator_traitsISaIP4roueEE10_S_destroyIS1_EENSt9enable_ifIXsrSt6__and_IINS3_16__destroy_helperIT_E4typeEEE5valueEvE4typeERS2_PS8_ @275
    _ZNSt16allocator_traitsISaIP4roueEE10deallocateERS2_PS1_y @276
    _ZNSt16allocator_traitsISaIP4roueEE11_S_max_sizeIKS2_vEEyRT_i @277
    _ZNSt16allocator_traitsISaIP4roueEE12_S_constructIS1_IS1_EEENSt9enable_ifIXsrSt6__and_IINS3_18__construct_helperIT_IDpT0_EE4typeEEE5valueEvE4typeERS2_PS8_DpOS9_ @278
    _ZNSt16allocator_traitsISaIP4roueEE7destroyIS1_EEvRS2_PT_ @279
    _ZNSt16allocator_traitsISaIP4roueEE8allocateERS2_y @280
    _ZNSt16allocator_traitsISaIP4roueEE8max_sizeERKS2_ @281
    _ZNSt16allocator_traitsISaIP4roueEE9constructIS1_IS1_EEEDTcl12_S_constructfp_fp0_spcl7forwardIT0_Efp1_EEERS2_PT_DpOS5_ @282
    _ZNSt16allocator_traitsISaIP5porteEE10deallocateERS2_PS1_y @283
    _ZNSt20__uninitialized_copyILb0EE13__uninit_copyIN9__gnu_cxx17__normal_iteratorIPK8TriangleSt6vectorIS4_SaIS4_EEEEPS4_EET0_T_SD_SC_ @284
    _ZNSt20__uninitialized_copyILb0EE13__uninit_copyIP8TriangleS3_EET0_T_S5_S4_ @285
    _ZNSt20__uninitialized_copyILb0EE13__uninit_copyISt13move_iteratorIPP4roueES5_EET0_T_S8_S7_ @286
    _ZNSt6vectorI8TriangleSaIS0_EE19_M_emplace_back_auxIIRKS0_EEEvDpOT_ @287
    _ZNSt6vectorI8TriangleSaIS0_EE3endEv @288
    _ZNSt6vectorI8TriangleSaIS0_EE5beginEv @289
    _ZNSt6vectorI8TriangleSaIS0_EE9push_backERKS0_ @290
    _ZNSt6vectorI8TriangleSaIS0_EEC1ERKS2_ @291
    _ZNSt6vectorI8TriangleSaIS0_EEC1Ev @292
    _ZNSt6vectorI8TriangleSaIS0_EED1Ev @293
    _ZNSt6vectorI8vector3dSaIS0_EEC1Ev @294
    _ZNSt6vectorI8vector3dSaIS0_EED1Ev @295
    _ZNSt6vectorI8vector3dSaIS0_EEixEy @296
    _ZNSt6vectorIP4roueSaIS1_EE12emplace_backIIS1_EEEvDpOT_ @297
    _ZNSt6vectorIP4roueSaIS1_EE19_M_emplace_back_auxIIS1_EEEvDpOT_ @298
    _ZNSt6vectorIP4roueSaIS1_EE9push_backEOS1_ @299
    _ZNSt6vectorIP4roueSaIS1_EEC1Ev @300
    _ZNSt6vectorIP4roueSaIS1_EED1Ev @301
    _ZNSt6vectorIP4roueSaIS1_EEixEy @302
    _ZNSt6vectorIP5porteSaIS1_EEC1Ev @303
    _ZNSt6vectorIP5porteSaIS1_EED1Ev @304
    _ZSt10_ConstructI8TriangleIRKS0_EEvPT_DpOT0_ @305
    _ZSt10_ConstructI8TriangleIRS0_EEvPT_DpOT0_ @306
    _ZSt10_ConstructIP4roueIS1_EEvPT_DpOT0_ @307
    _ZSt11__addressofI8TriangleEPT_RS1_ @308
    _ZSt11__addressofI8vector3dEPT_RS1_ @309
    _ZSt11__addressofIP4roueEPT_RS2_ @310
    _ZSt18uninitialized_copyIN9__gnu_cxx17__normal_iteratorIPK8TriangleSt6vectorIS2_SaIS2_EEEEPS2_ET0_T_SB_SA_ @311
    _ZSt18uninitialized_copyIP8TriangleS1_ET0_T_S3_S2_ @312
    _ZSt18uninitialized_copyISt13move_iteratorIPP4roueES3_ET0_T_S6_S5_ @313
    _ZSt22__uninitialized_copy_aIN9__gnu_cxx17__normal_iteratorIPK8TriangleSt6vectorIS2_SaIS2_EEEEPS2_S2_ET0_T_SB_SA_RSaIT1_E @314
    _ZSt22__uninitialized_copy_aIP8TriangleS1_S0_ET0_T_S3_S2_RSaIT1_E @315
    _ZSt22__uninitialized_copy_aISt13move_iteratorIPP4roueES3_S2_ET0_T_S6_S5_RSaIT1_E @316
    _ZSt32__make_move_if_noexcept_iteratorIP8TriangleS1_ET0_T_ @317
    _ZSt32__make_move_if_noexcept_iteratorIPP4roueSt13move_iteratorIS2_EET0_T_ @318
    _ZSt34__uninitialized_move_if_noexcept_aIP8TriangleS1_SaIS0_EET0_T_S4_S3_RT1_ @319
    _ZSt34__uninitialized_move_if_noexcept_aIPP4roueS2_SaIS1_EET0_T_S5_S4_RT1_ @320
    _ZSt3absf @321
    _ZSt3cosf @322
    _ZSt3maxIyERKT_S2_S2_ @323
    _ZSt3sinf @324
    _ZSt3tanf @325
    _ZSt4moveIRP4roueEONSt16remove_referenceIT_E4typeEOS4_ @326
    _ZSt4sqrtf @327
    _ZSt4swapIfEvRT_S1_ @328
    _ZSt7forwardIP4roueEOT_RNSt16remove_referenceIS2_E4typeE @329
    _ZSt7forwardIR8TriangleEOT_RNSt16remove_referenceIS2_E4typeE @330
    _ZSt7forwardIRK8TriangleEOT_RNSt16remove_referenceIS3_E4typeE @331
    _ZSt8_DestroyI8TriangleEvPT_ @332
    _ZSt8_DestroyI8vector3dEvPT_ @333
    _ZSt8_DestroyIP8TriangleEvT_S2_ @334
    _ZSt8_DestroyIP8TriangleS0_EvT_S2_RSaIT0_E @335
    _ZSt8_DestroyIP8vector3dEvT_S2_ @336
    _ZSt8_DestroyIP8vector3dS0_EvT_S2_RSaIT0_E @337
    _ZSt8_DestroyIPP4roueEvT_S3_ @338
    _ZSt8_DestroyIPP4roueS1_EvT_S3_RSaIT0_E @339
    _ZSt8_DestroyIPP5porteEvT_S3_ @340
    _ZSt8_DestroyIPP5porteS1_EvT_S3_RSaIT0_E @341
    _ZSteqIPP4roueEbRKSt13move_iteratorIT_ES7_ @342
    _ZStneIPP4roueEbRKSt13move_iteratorIT_ES7_ @343
    _ZTISt11logic_error @344 DATA
    _ZTISt12out_of_range @345 DATA
    _ZTISt9exception @346 DATA
    _ZTSSt11logic_error @347 DATA
    _ZTSSt12out_of_range @348 DATA
    _ZTSSt9exception @349 DATA
    _ZdlPvS_ @350
    _ZlsRSo8vector3d @351
    _ZnwyPv @352
    cam @353 DATA
