EXPORTS
    _ZN4AABB17isPointInsideAABBERK8vector3dS2_S2_ @1
    _ZN4AABB3setERK8vector3dS2_ @2
    _ZN4AABB6updateERK8vector3d @3
    _ZN4AABBC1Ev @4
    _ZN4AABBC2Ev @5
    _ZN4AABBD1Ev @6
    _ZN4AABBD2Ev @7
    _ZN8vector3d12crossproductERKS_ @8
    _ZN8vector3d6changeES_ @9
    _ZN8vector3d6changeEfff @10
    _ZN8vector3d6lengthEv @11
    _ZN8vector3d7changeXEf @12
    _ZN8vector3d7changeYEf @13
    _ZN8vector3d7changeZEf @14
    _ZN8vector3d7reflectERKS_ @15
    _ZN8vector3d9normaliseERKS_ @16
    _ZN8vector3d9normalizeEv @17
    _ZN8vector3dC1Eff @18
    _ZN8vector3dC1Efff @19
    _ZN8vector3dC1Ev @20
    _ZN8vector3dC2Eff @21
    _ZN8vector3dC2Efff @22
    _ZN8vector3dC2Ev @23
    _ZN8vector3dD1Ev @24
    _ZN8vector3ddVERKf @25
    _ZN8vector3ddvERKf @26
    _ZN8vector3dmIERKS_ @27
    _ZN8vector3dmLERKf @28
    _ZN8vector3dneERKS_ @29
    _ZN8vector3dpLERKS_ @30
    _ZN8vector4dC1Effff @31
    _ZN8vector4dC1Ev @32
    _ZN8vector4dC2Effff @33
    _ZN8vector4dC2Ev @34
    _ZN9__gnu_cxx13new_allocatorI8vector3dE10deallocateEPS1_y @35
    _ZN9__gnu_cxx13new_allocatorI8vector3dE8allocateEyPKv @36
    _ZN9__gnu_cxx13new_allocatorI8vector3dEC2ERKS2_ @37
    _ZN9__gnu_cxx13new_allocatorI8vector3dEC2Ev @38
    _ZN9__gnu_cxx13new_allocatorI8vector3dED2Ev @39
    _ZNK4AABB10getCornersEv @40
    _ZNK4AABB10intersectsERKS_ @41
    _ZNK4AABB6getMaxEv @42
    _ZNK4AABB6getMinEv @43
    _ZNK8vector3d10dotproductERKS_ @44
    _ZNK8vector3d3dotERKS_S1_ @45
    _ZNK8vector3d5crossERKS_S1_ @46
    _ZNK8vector3deqERKS_ @47
    _ZNK8vector3dixEi @48
    _ZNK8vector3dltERKS_ @49
    _ZNK8vector3dmiERKS_ @50
    _ZNK8vector3dmlERKf @51
    _ZNK8vector3dplERKS_ @52
    _ZNK8vector4d9normalizeEv @53
    _ZNK8vector4dmiERKS_ @54
    _ZNK8vector4dmlEf @55
    _ZNK8vector4dplERKS_ @56
    _ZNK9__gnu_cxx13new_allocatorI8vector3dE8max_sizeEv @57
    _ZNKSt16initializer_listI8vector3dE3endEv @58
    _ZNKSt16initializer_listI8vector3dE4sizeEv @59
    _ZNKSt16initializer_listI8vector3dE5beginEv @60
    _ZNSaI8vector3dEC1Ev @61
    _ZNSaI8vector3dEC2ERKS0_ @62
    _ZNSaI8vector3dED1Ev @63
    _ZNSaI8vector3dED2Ev @64
    _ZNSt12_Vector_baseI8vector3dSaIS0_EE11_M_allocateEy @65
    _ZNSt12_Vector_baseI8vector3dSaIS0_EE12_Vector_implC1ERKS1_ @66
    _ZNSt12_Vector_baseI8vector3dSaIS0_EE12_Vector_implD1Ev @67
    _ZNSt12_Vector_baseI8vector3dSaIS0_EE13_M_deallocateEPS0_y @68
    _ZNSt12_Vector_baseI8vector3dSaIS0_EE19_M_get_Tp_allocatorEv @69
    _ZNSt12_Vector_baseI8vector3dSaIS0_EEC2ERKS1_ @70
    _ZNSt12_Vector_baseI8vector3dSaIS0_EED2Ev @71
    _ZNSt16allocator_traitsISaI8vector3dEE10deallocateERS1_PS0_y @72
    _ZNSt16allocator_traitsISaI8vector3dEE8allocateERS1_y @73
    _ZNSt20__uninitialized_copyILb0EE13__uninit_copyIPK8vector3dPS2_EET0_T_S7_S6_ @74
    _ZNSt6vectorI8vector3dSaIS0_EE19_M_range_initializeIPKS0_EEvT_S6_St20forward_iterator_tag @75
    _ZNSt6vectorI8vector3dSaIS0_EEC1ESt16initializer_listIS0_ERKS1_ @76
    _ZSt10_ConstructI8vector3dIRKS0_EEvPT_DpOT0_ @77
    _ZSt10__distanceIPK8vector3dENSt15iterator_traitsIT_E15difference_typeES4_S4_St26random_access_iterator_tag @78
    _ZSt11__addressofI8vector3dEPT_RS1_ @79
    _ZSt18uninitialized_copyIPK8vector3dPS0_ET0_T_S5_S4_ @80
    _ZSt19__iterator_categoryIPK8vector3dENSt15iterator_traitsIT_E17iterator_categoryERKS4_ @81
    _ZSt22__uninitialized_copy_aIPK8vector3dPS0_S0_ET0_T_S5_S4_RSaIT1_E @82
    _ZSt4sqrtf @83
    _ZSt7forwardIRK8vector3dEOT_RNSt16remove_referenceIS3_E4typeE @84
    _ZSt8distanceIPK8vector3dENSt15iterator_traitsIT_E15difference_typeES4_S4_ @85
    _ZTISt11logic_error @86 DATA
    _ZTISt12out_of_range @87 DATA
    _ZTISt9exception @88 DATA
    _ZTSSt11logic_error @89 DATA
    _ZTSSt12out_of_range @90 DATA
    _ZTSSt9exception @91 DATA
    _ZlsRSo8vector3d @92
    _ZnwyPv @93
