EXPORTS
    _ZN3uvsC1Ev @1
    _ZN6height10drawHeightEffP5pixelPjPfiiRK6Camera @2
    _ZN6height13loadHeightMapEPKc @3
    _ZN6height14getScaleMatrixEv @4
    _ZN6height15renderTrianglesEP5pixelRSt6vectorI8TriangleSaIS3_EEPjPfiiRK6Camera @5
    _ZN6height17generateTrianglesEff @6
    _ZN6height20getTranslationMatrixEv @7
    _ZN6heightC1Ev @8
    _ZN6heightC2Ev @9
    _ZN6heightD1Ev @10
    _ZN6heightD2Ev @11
    _ZN8MaterialC1ERKS_ @12
    _ZN8MaterialC1Ev @13
    _ZN8MaterialD1Ev @14
    _ZN8TriangleC1E8vector3dS0_S0_8Material @15
    _ZN8TriangleC1ERKS_ @16
    _ZN8TriangleD1Ev @17
    _ZN8vector2dC1Eff @18
    _ZN8vector3d12crossproductERKS_ @19
    _ZN8vector3d6changeES_ @20
    _ZN8vector3d6changeEfff @21
    _ZN8vector3d6lengthEv @22
    _ZN8vector3d7changeXEf @23
    _ZN8vector3d7changeYEf @24
    _ZN8vector3d7changeZEf @25
    _ZN8vector3d7reflectERKS_ @26
    _ZN8vector3d9normaliseERKS_ @27
    _ZN8vector3d9normalizeEv @28
    _ZN8vector3dC1Eff @29
    _ZN8vector3dC1Efff @30
    _ZN8vector3dC1Ev @31
    _ZN8vector3dC2Eff @32
    _ZN8vector3dC2Efff @33
    _ZN8vector3dC2Ev @34
    _ZN8vector3dD1Ev @35
    _ZN8vector3ddVERKf @36
    _ZN8vector3ddvERKf @37
    _ZN8vector3dmIERKS_ @38
    _ZN8vector3dmLERKf @39
    _ZN8vector3dneERKS_ @40
    _ZN8vector3dpLERKS_ @41
    _ZN8vector4dC1Effff @42
    _ZN8vector4dC1Ev @43
    _ZN8vector4dC2Effff @44
    _ZN8vector4dC2Ev @45
    _ZN9Matrix4x410setScalingEfff @46
    _ZN9Matrix4x411setRotationEfff @47
    _ZN9Matrix4x412setRotationXEf @48
    _ZN9Matrix4x412setRotationYEf @49
    _ZN9Matrix4x412setRotationZEf @50
    _ZN9Matrix4x414setTranslationEfff @51
    _ZN9Matrix4x49setColumnEiRK8vector3d @52
    _ZN9Matrix4x4C1EPA4_f @53
    _ZN9Matrix4x4C1Ev @54
    _ZN9Matrix4x4C2EPA4_f @55
    _ZN9Matrix4x4C2Ev @56
    _ZN9__gnu_cxx13new_allocatorI8TriangleE10deallocateEPS1_y @57
    _ZN9__gnu_cxx13new_allocatorI8TriangleE7destroyIS1_EEvPT_ @58
    _ZN9__gnu_cxx13new_allocatorI8TriangleE8allocateEyPKv @59
    _ZN9__gnu_cxx13new_allocatorI8TriangleE9constructIS1_IR8vector3dS5_S5_R8MaterialEEEvPT_DpOT0_ @60
    _ZN9__gnu_cxx13new_allocatorI8TriangleEC2Ev @61
    _ZN9__gnu_cxx13new_allocatorI8TriangleED2Ev @62
    _ZN9__gnu_cxx13new_allocatorISt6vectorIfSaIfEEE10deallocateEPS3_y @63
    _ZN9__gnu_cxx13new_allocatorISt6vectorIfSaIfEEE8allocateEyPKv @64
    _ZN9__gnu_cxx13new_allocatorISt6vectorIfSaIfEEEC2Ev @65
    _ZN9__gnu_cxx13new_allocatorISt6vectorIfSaIfEEED2Ev @66
    _ZN9__gnu_cxx13new_allocatorIfE10deallocateEPfy @67
    _ZN9__gnu_cxx13new_allocatorIfE8allocateEyPKv @68
    _ZN9__gnu_cxx13new_allocatorIfEC2ERKS1_ @69
    _ZN9__gnu_cxx13new_allocatorIfEC2Ev @70
    _ZN9__gnu_cxx13new_allocatorIfED2Ev @71
    _ZN9__gnu_cxx14__alloc_traitsISaIfEE15_S_always_equalEv @72
    _ZN9__gnu_cxx14__alloc_traitsISaIfEE17_S_select_on_copyERKS1_ @73
    _ZN9__gnu_cxx14__alloc_traitsISaIfEE27_S_propagate_on_copy_assignEv @74
    _ZN9__gnu_cxx17__normal_iteratorIP8TriangleSt6vectorIS1_SaIS1_EEEC1ERKS2_ @75
    _ZN9__gnu_cxx17__normal_iteratorIP8TriangleSt6vectorIS1_SaIS1_EEEppEv @76
    _ZN9__gnu_cxx17__normal_iteratorIPKSt6vectorIfSaIfEES1_IS3_SaIS3_EEEC1ERKS5_ @77
    _ZN9__gnu_cxx17__normal_iteratorIPKSt6vectorIfSaIfEES1_IS3_SaIS3_EEEC1IPS3_EERKNS0_IT_NS_11__enable_ifIXsrSt10__are_sameISB_SA_E7__valueES7_E6__typeEEE @78
    _ZN9__gnu_cxx17__normal_iteratorIPKfSt6vectorIfSaIfEEEC1ERKS2_ @79
    _ZN9__gnu_cxx17__normal_iteratorIPKfSt6vectorIfSaIfEEEppEv @80
    _ZN9__gnu_cxx17__normal_iteratorIPSt6vectorIfSaIfEES1_IS3_SaIS3_EEEC1ERKS4_ @81
    _ZN9__gnu_cxx17__normal_iteratorIPfSt6vectorIfSaIfEEEC1ERKS1_ @82
    _ZN9__gnu_cxxmiIPKSt6vectorIfSaIfEES1_IS3_SaIS3_EEEENS_17__normal_iteratorIT_T0_E15difference_typeERKSB_SE_ @83
    _ZN9__gnu_cxxmiIPSt6vectorIfSaIfEES1_IS3_SaIS3_EEEENS_17__normal_iteratorIT_T0_E15difference_typeERKSA_SD_ @84
    _ZN9__gnu_cxxneIP8TriangleSt6vectorIS1_SaIS1_EEEEbRKNS_17__normal_iteratorIT_T0_EESB_ @85
    _ZN9__gnu_cxxneIPKfSt6vectorIfSaIfEEEEbRKNS_17__normal_iteratorIT_T0_EESB_ @86
    _ZNK8vector3d10dotproductERKS_ @87
    _ZNK8vector3d3dotERKS_S1_ @88
    _ZNK8vector3d5crossERKS_S1_ @89
    _ZNK8vector3deqERKS_ @90
    _ZNK8vector3dixEi @91
    _ZNK8vector3dltERKS_ @92
    _ZNK8vector3dmiERKS_ @93
    _ZNK8vector3dmlERKf @94
    _ZNK8vector3dplERKS_ @95
    _ZNK8vector4d9normalizeEv @96
    _ZNK8vector4dmiERKS_ @97
    _ZNK8vector4dmlEf @98
    _ZNK8vector4dplERKS_ @99
    _ZNK9Matrix4x415transformVectorERK8vector3d @100
    _ZNK9Matrix4x45applyERK8vector3d @101
    _ZNK9Matrix4x47inverseEv @102
    _ZNK9Matrix4x48multiplyERK8vector3d @103
    _ZNK9Matrix4x4mlERK8vector3d @104
    _ZNK9Matrix4x4mlERKS_ @105
    _ZNK9__gnu_cxx13new_allocatorI8TriangleE8max_sizeEv @106
    _ZNK9__gnu_cxx13new_allocatorISt6vectorIfSaIfEEE8max_sizeEv @107
    _ZNK9__gnu_cxx13new_allocatorIfE8max_sizeEv @108
    _ZNK9__gnu_cxx17__normal_iteratorIP8TriangleSt6vectorIS1_SaIS1_EEE4baseEv @109
    _ZNK9__gnu_cxx17__normal_iteratorIP8TriangleSt6vectorIS1_SaIS1_EEEdeEv @110
    _ZNK9__gnu_cxx17__normal_iteratorIPKSt6vectorIfSaIfEES1_IS3_SaIS3_EEE4baseEv @111
    _ZNK9__gnu_cxx17__normal_iteratorIPKfSt6vectorIfSaIfEEE4baseEv @112
    _ZNK9__gnu_cxx17__normal_iteratorIPKfSt6vectorIfSaIfEEEdeEv @113
    _ZNK9__gnu_cxx17__normal_iteratorIPSt6vectorIfSaIfEES1_IS3_SaIS3_EEE4baseEv @114
    _ZNK9__gnu_cxx17__normal_iteratorIPSt6vectorIfSaIfEES1_IS3_SaIS3_EEEplEx @115
    _ZNK9__gnu_cxx17__normal_iteratorIPfSt6vectorIfSaIfEEE4baseEv @116
    _ZNKSt12_Vector_baseI8TriangleSaIS0_EE19_M_get_Tp_allocatorEv @117
    _ZNKSt12_Vector_baseISt6vectorIfSaIfEESaIS2_EE19_M_get_Tp_allocatorEv @118
    _ZNKSt12_Vector_baseIfSaIfEE13get_allocatorEv @119
    _ZNKSt12_Vector_baseIfSaIfEE19_M_get_Tp_allocatorEv @120
    _ZNKSt13move_iteratorIPSt6vectorIfSaIfEEE4baseEv @121
    _ZNKSt13move_iteratorIPSt6vectorIfSaIfEEEdeEv @122
    _ZNKSt6vectorI8TriangleSaIS0_EE12_M_check_lenEyPKc @123
    _ZNKSt6vectorI8TriangleSaIS0_EE4sizeEv @124
    _ZNKSt6vectorI8TriangleSaIS0_EE8capacityEv @125
    _ZNKSt6vectorI8TriangleSaIS0_EE8max_sizeEv @126
    _ZNKSt6vectorIS_IfSaIfEESaIS1_EE12_M_check_lenEyPKc @127
    _ZNKSt6vectorIS_IfSaIfEESaIS1_EE4sizeEv @128
    _ZNKSt6vectorIS_IfSaIfEESaIS1_EE6cbeginEv @129
    _ZNKSt6vectorIS_IfSaIfEESaIS1_EE8max_sizeEv @130
    _ZNKSt6vectorIfSaIfEE3endEv @131
    _ZNKSt6vectorIfSaIfEE4sizeEv @132
    _ZNKSt6vectorIfSaIfEE5beginEv @133
    _ZNKSt6vectorIfSaIfEE8capacityEv @134
    _ZNSaI8TriangleEC2Ev @135
    _ZNSaI8TriangleED2Ev @136
    _ZNSaISt6vectorIfSaIfEEEC2Ev @137
    _ZNSaISt6vectorIfSaIfEEED2Ev @138
    _ZNSaIfEC1ERKS_ @139
    _ZNSaIfEC1Ev @140
    _ZNSaIfEC2ERKS_ @141
    _ZNSaIfEC2Ev @142
    _ZNSaIfED1Ev @143
    _ZNSaIfED2Ev @144
    _ZNSt10_Iter_baseIN9__gnu_cxx17__normal_iteratorIPKfSt6vectorIfSaIfEEEELb0EE7_S_baseES7_ @145
    _ZNSt10_Iter_baseIN9__gnu_cxx17__normal_iteratorIPKfSt6vectorIfSaIfEEEELb1EE7_S_baseES7_ @146
    _ZNSt10_Iter_baseIN9__gnu_cxx17__normal_iteratorIPfSt6vectorIfSaIfEEEELb1EE7_S_baseES6_ @147
    _ZNSt10_Iter_baseIPSt6vectorIfSaIfEELb0EE7_S_baseES3_ @148
    _ZNSt10_Iter_baseIPfLb0EE7_S_baseES0_ @149
    _ZNSt11__copy_moveILb0ELb1ESt26random_access_iterator_tagE8__copy_mIfEEPT_PKS3_S6_S4_ @150
    _ZNSt12_Destroy_auxILb0EE9__destroyIP8TriangleEEvT_S4_ @151
    _ZNSt12_Destroy_auxILb0EE9__destroyIPSt6vectorIfSaIfEEEEvT_S6_ @152
    _ZNSt12_Destroy_auxILb1EE9__destroyIN9__gnu_cxx17__normal_iteratorIPfSt6vectorIfSaIfEEEEEEvT_S9_ @153
    _ZNSt12_Destroy_auxILb1EE9__destroyIPfEEvT_S3_ @154
    _ZNSt12_Vector_baseI8TriangleSaIS0_EE11_M_allocateEy @155
    _ZNSt12_Vector_baseI8TriangleSaIS0_EE12_Vector_implC1Ev @156
    _ZNSt12_Vector_baseI8TriangleSaIS0_EE12_Vector_implD1Ev @157
    _ZNSt12_Vector_baseI8TriangleSaIS0_EE13_M_deallocateEPS0_y @158
    _ZNSt12_Vector_baseI8TriangleSaIS0_EE19_M_get_Tp_allocatorEv @159
    _ZNSt12_Vector_baseI8TriangleSaIS0_EEC2Ev @160
    _ZNSt12_Vector_baseI8TriangleSaIS0_EED2Ev @161
    _ZNSt12_Vector_baseISt6vectorIfSaIfEESaIS2_EE11_M_allocateEy @162
    _ZNSt12_Vector_baseISt6vectorIfSaIfEESaIS2_EE12_Vector_implC1Ev @163
    _ZNSt12_Vector_baseISt6vectorIfSaIfEESaIS2_EE12_Vector_implD1Ev @164
    _ZNSt12_Vector_baseISt6vectorIfSaIfEESaIS2_EE13_M_deallocateEPS2_y @165
    _ZNSt12_Vector_baseISt6vectorIfSaIfEESaIS2_EE19_M_get_Tp_allocatorEv @166
    _ZNSt12_Vector_baseISt6vectorIfSaIfEESaIS2_EEC2Ev @167
    _ZNSt12_Vector_baseISt6vectorIfSaIfEESaIS2_EED2Ev @168
    _ZNSt12_Vector_baseIfSaIfEE11_M_allocateEy @169
    _ZNSt12_Vector_baseIfSaIfEE12_Vector_impl12_M_swap_dataERS2_ @170
    _ZNSt12_Vector_baseIfSaIfEE12_Vector_implC1EOS0_ @171
    _ZNSt12_Vector_baseIfSaIfEE12_Vector_implC1ERKS0_ @172
    _ZNSt12_Vector_baseIfSaIfEE12_Vector_implC1Ev @173
    _ZNSt12_Vector_baseIfSaIfEE12_Vector_implD1Ev @174
    _ZNSt12_Vector_baseIfSaIfEE13_M_deallocateEPfy @175
    _ZNSt12_Vector_baseIfSaIfEE17_M_create_storageEy @176
    _ZNSt12_Vector_baseIfSaIfEE19_M_get_Tp_allocatorEv @177
    _ZNSt12_Vector_baseIfSaIfEEC2EOS1_ @178
    _ZNSt12_Vector_baseIfSaIfEEC2ERKS0_ @179
    _ZNSt12_Vector_baseIfSaIfEEC2Ev @180
    _ZNSt12_Vector_baseIfSaIfEEC2EyRKS0_ @181
    _ZNSt12_Vector_baseIfSaIfEED2Ev @182
    _ZNSt13move_iteratorIPSt6vectorIfSaIfEEEC1ES3_ @183
    _ZNSt13move_iteratorIPSt6vectorIfSaIfEEEppEv @184
    _ZNSt16allocator_traitsISaI8TriangleEE10_S_destroyIS0_EENSt9enable_ifIXsrSt6__and_IINS2_16__destroy_helperIT_E4typeEEE5valueEvE4typeERS1_PS7_ @185
    _ZNSt16allocator_traitsISaI8TriangleEE10deallocateERS1_PS0_y @186
    _ZNSt16allocator_traitsISaI8TriangleEE11_S_max_sizeIKS1_vEEyRT_i @187
    _ZNSt16allocator_traitsISaI8TriangleEE12_S_constructIS0_IR8vector3dS5_S5_R8MaterialEEENSt9enable_ifIXsrSt6__and_IINS2_18__construct_helperIT_IDpT0_EE4typeEEE5valueEvE4typeERS1_PSB_DpOSC_ @188
    _ZNSt16allocator_traitsISaI8TriangleEE7destroyIS0_EEvRS1_PT_ @189
    _ZNSt16allocator_traitsISaI8TriangleEE8allocateERS1_y @190
    _ZNSt16allocator_traitsISaI8TriangleEE8max_sizeERKS1_ @191
    _ZNSt16allocator_traitsISaI8TriangleEE9constructIS0_IR8vector3dS5_S5_R8MaterialEEEDTcl12_S_constructfp_fp0_spcl7forwardIT0_Efp1_EEERS1_PT_DpOS8_ @192
    _ZNSt16allocator_traitsISaISt6vectorIfSaIfEEEE10deallocateERS3_PS2_y @193
    _ZNSt16allocator_traitsISaISt6vectorIfSaIfEEEE11_S_max_sizeIKS3_vEEyRT_i @194
    _ZNSt16allocator_traitsISaISt6vectorIfSaIfEEEE8allocateERS3_y @195
    _ZNSt16allocator_traitsISaISt6vectorIfSaIfEEEE8max_sizeERKS3_ @196
    _ZNSt16allocator_traitsISaIfEE10deallocateERS0_Pfy @197
    _ZNSt16allocator_traitsISaIfEE37select_on_container_copy_constructionERKS0_ @198
    _ZNSt16allocator_traitsISaIfEE8allocateERS0_y @199
    _ZNSt16allocator_traitsISaIfEE9_S_selectIKS0_vEET_RS4_z @200
    _ZNSt20__copy_move_backwardILb1ELb0ESt26random_access_iterator_tagE13__copy_move_bIPSt6vectorIfSaIfEES6_EET0_T_S8_S7_ @201
    _ZNSt20__uninitialized_copyILb0EE13__uninit_copyIN9__gnu_cxx17__normal_iteratorIPKfSt6vectorIfSaIfEEEEPfEET0_T_SC_SB_ @202
    _ZNSt20__uninitialized_copyILb0EE13__uninit_copyIP8TriangleS3_EET0_T_S5_S4_ @203
    _ZNSt20__uninitialized_copyILb0EE13__uninit_copyIPfS2_EET0_T_S4_S3_ @204
    _ZNSt20__uninitialized_copyILb0EE13__uninit_copyISt13move_iteratorIPSt6vectorIfSaIfEEES6_EET0_T_S9_S8_ @205
    _ZNSt22__uninitialized_fill_nILb0EE15__uninit_fill_nIPSt6vectorIfSaIfEEyS4_EEvT_T0_RKT1_ @206
    _ZNSt27__uninitialized_default_n_1ILb1EE18__uninit_default_nIPfyEEvT_T0_ @207
    _ZNSt6vectorI8TriangleSaIS0_EE12emplace_backIIR8vector3dS5_S5_R8MaterialEEEvDpOT_ @208
    _ZNSt6vectorI8TriangleSaIS0_EE19_M_emplace_back_auxIIR8vector3dS5_S5_R8MaterialEEEvDpOT_ @209
    _ZNSt6vectorI8TriangleSaIS0_EE20_M_allocate_and_copyIPS0_EES4_yT_S5_ @210
    _ZNSt6vectorI8TriangleSaIS0_EE3endEv @211
    _ZNSt6vectorI8TriangleSaIS0_EE5beginEv @212
    _ZNSt6vectorI8TriangleSaIS0_EE7reserveEy @213
    _ZNSt6vectorI8TriangleSaIS0_EEC1Ev @214
    _ZNSt6vectorI8TriangleSaIS0_EED1Ev @215
    _ZNSt6vectorIS_IfSaIfEESaIS1_EE14_M_fill_insertEN9__gnu_cxx17__normal_iteratorIPS1_S3_EEyRKS1_ @216
    _ZNSt6vectorIS_IfSaIfEESaIS1_EE15_M_erase_at_endEPS1_ @217
    _ZNSt6vectorIS_IfSaIfEESaIS1_EE3endEv @218
    _ZNSt6vectorIS_IfSaIfEESaIS1_EE5beginEv @219
    _ZNSt6vectorIS_IfSaIfEESaIS1_EE6insertEN9__gnu_cxx17__normal_iteratorIPKS1_S3_EEyRS6_ @220
    _ZNSt6vectorIS_IfSaIfEESaIS1_EE6resizeEyRKS1_ @221
    _ZNSt6vectorIS_IfSaIfEESaIS1_EEC1Ev @222
    _ZNSt6vectorIS_IfSaIfEESaIS1_EED1Ev @223
    _ZNSt6vectorIS_IfSaIfEESaIS1_EEixEy @224
    _ZNSt6vectorIfSaIfEE14_M_move_assignEOS1_St17integral_constantIbLb1EE @225
    _ZNSt6vectorIfSaIfEE15_M_erase_at_endEPf @226
    _ZNSt6vectorIfSaIfEE20_M_allocate_and_copyIN9__gnu_cxx17__normal_iteratorIPKfS1_EEEEPfyT_S9_ @227
    _ZNSt6vectorIfSaIfEE21_M_default_initializeEy @228
    _ZNSt6vectorIfSaIfEE3endEv @229
    _ZNSt6vectorIfSaIfEE5beginEv @230
    _ZNSt6vectorIfSaIfEE5clearEv @231
    _ZNSt6vectorIfSaIfEEC1EOS1_ @232
    _ZNSt6vectorIfSaIfEEC1ERKS0_ @233
    _ZNSt6vectorIfSaIfEEC1ERKS1_ @234
    _ZNSt6vectorIfSaIfEEC1Ev @235
    _ZNSt6vectorIfSaIfEEC1EyRKS0_ @236
    _ZNSt6vectorIfSaIfEED1Ev @237
    _ZNSt6vectorIfSaIfEEaSEOS1_ @238
    _ZNSt6vectorIfSaIfEEaSERKS1_ @239
    _ZNSt6vectorIfSaIfEEixEy @240
    _ZSt10_ConstructI8TriangleIRS0_EEvPT_DpOT0_ @241
    _ZSt10_ConstructISt6vectorIfSaIfEEIRKS2_EEvPT_DpOT0_ @242
    _ZSt10_ConstructISt6vectorIfSaIfEEIS2_EEvPT_DpOT0_ @243
    _ZSt10_ConstructIfIRKfEEvPT_DpOT0_ @244
    _ZSt10_ConstructIfIRfEEvPT_DpOT0_ @245
    _ZSt10__fill_n_aIPfyfEN9__gnu_cxx11__enable_ifIXsrSt11__is_scalarIT1_E7__valueET_E6__typeES6_T0_RKS4_ @246
    _ZSt11__addressofI8TriangleEPT_RS1_ @247
    _ZSt11__addressofISt6vectorIfSaIfEEEPT_RS3_ @248
    _ZSt11__addressofIfEPT_RS0_ @249
    _ZSt12__miter_baseIN9__gnu_cxx17__normal_iteratorIPKfSt6vectorIfSaIfEEEEENSt11_Miter_baseIT_E13iterator_typeES9_ @250
    _ZSt12__miter_baseIPSt6vectorIfSaIfEEENSt11_Miter_baseIT_E13iterator_typeES5_ @251
    _ZSt12__miter_baseIPfENSt11_Miter_baseIT_E13iterator_typeES2_ @252
    _ZSt12__niter_baseIN9__gnu_cxx17__normal_iteratorIPKfSt6vectorIfSaIfEEEEENSt11_Niter_baseIT_E13iterator_typeES9_ @253
    _ZSt12__niter_baseIN9__gnu_cxx17__normal_iteratorIPfSt6vectorIfSaIfEEEEENSt11_Niter_baseIT_E13iterator_typeES8_ @254
    _ZSt12__niter_baseIPSt6vectorIfSaIfEEENSt11_Niter_baseIT_E13iterator_typeES5_ @255
    _ZSt12__niter_baseIPfENSt11_Niter_baseIT_E13iterator_typeES2_ @256
    _ZSt13__copy_move_aILb0EPKfPfET1_T0_S4_S3_ @257
    _ZSt13__copy_move_aILb0EPfS0_ET1_T0_S2_S1_ @258
    _ZSt13move_backwardIPSt6vectorIfSaIfEES3_ET0_T_S5_S4_ @259
    _ZSt14__copy_move_a2ILb0EN9__gnu_cxx17__normal_iteratorIPKfSt6vectorIfSaIfEEEENS1_IPfS6_EEET1_T0_SB_SA_ @260
    _ZSt14__copy_move_a2ILb0EPfS0_ET1_T0_S2_S1_ @261
    _ZSt15__alloc_on_copyISaIfEEvRT_RKS1_ @262
    _ZSt15__alloc_on_moveISaIfEEvRT_S2_ @263
    _ZSt18__do_alloc_on_copyISaIfEEvRT_RKS1_St17integral_constantIbLb0EE @264
    _ZSt18__do_alloc_on_moveISaIfEEvRT_S2_St17integral_constantIbLb1EE @265
    _ZSt18make_move_iteratorIPSt6vectorIfSaIfEEESt13move_iteratorIT_ES5_ @266
    _ZSt18uninitialized_copyIN9__gnu_cxx17__normal_iteratorIPKfSt6vectorIfSaIfEEEEPfET0_T_SA_S9_ @267
    _ZSt18uninitialized_copyIP8TriangleS1_ET0_T_S3_S2_ @268
    _ZSt18uninitialized_copyIPfS0_ET0_T_S2_S1_ @269
    _ZSt18uninitialized_copyISt13move_iteratorIPSt6vectorIfSaIfEEES4_ET0_T_S7_S6_ @270
    _ZSt20uninitialized_fill_nIPSt6vectorIfSaIfEEyS2_EvT_T0_RKT1_ @271
    _ZSt22__copy_move_backward_aILb1EPSt6vectorIfSaIfEES3_ET1_T0_S5_S4_ @272
    _ZSt22__uninitialized_copy_aIN9__gnu_cxx17__normal_iteratorIPKfSt6vectorIfSaIfEEEEPffET0_T_SA_S9_RSaIT1_E @273
    _ZSt22__uninitialized_copy_aIP8TriangleS1_S0_ET0_T_S3_S2_RSaIT1_E @274
    _ZSt22__uninitialized_copy_aIPfS0_fET0_T_S2_S1_RSaIT1_E @275
    _ZSt22__uninitialized_copy_aISt13move_iteratorIPSt6vectorIfSaIfEEES4_S3_ET0_T_S7_S6_RSaIT1_E @276
    _ZSt22__uninitialized_move_aIPSt6vectorIfSaIfEES3_SaIS2_EET0_T_S6_S5_RT1_ @277
    _ZSt23__copy_move_backward_a2ILb1EPSt6vectorIfSaIfEES3_ET1_T0_S5_S4_ @278
    _ZSt24__uninitialized_fill_n_aIPSt6vectorIfSaIfEEyS2_S2_EvT_T0_RKT1_RSaIT2_E @279
    _ZSt25__uninitialized_default_nIPfyEvT_T0_ @280
    _ZSt27__uninitialized_default_n_aIPfyfEvT_T0_RSaIT1_E @281
    _ZSt32__make_move_if_noexcept_iteratorIP8TriangleS1_ET0_T_ @282
    _ZSt32__make_move_if_noexcept_iteratorIPSt6vectorIfSaIfEESt13move_iteratorIS3_EET0_T_ @283
    _ZSt34__uninitialized_move_if_noexcept_aIP8TriangleS1_SaIS0_EET0_T_S4_S3_RT1_ @284
    _ZSt34__uninitialized_move_if_noexcept_aIPSt6vectorIfSaIfEES3_SaIS2_EET0_T_S6_S5_RT1_ @285
    _ZSt3absf @286
    _ZSt3cosf @287
    _ZSt3maxIfERKT_S2_S2_ @288
    _ZSt3maxIyERKT_S2_S2_ @289
    _ZSt3minIiERKT_S2_S2_ @290
    _ZSt3sinf @291
    _ZSt4copyIN9__gnu_cxx17__normal_iteratorIPKfSt6vectorIfSaIfEEEENS1_IPfS6_EEET0_T_SB_SA_ @292
    _ZSt4copyIPfS0_ET0_T_S2_S1_ @293
    _ZSt4fillIPSt6vectorIfSaIfEES2_EvT_S4_RKT0_ @294
    _ZSt4moveIRPfEONSt16remove_referenceIT_E4typeEOS3_ @295
    _ZSt4moveIRSaIfEEONSt16remove_referenceIT_E4typeEOS3_ @296
    _ZSt4moveIRSt6vectorIfSaIfEEEONSt16remove_referenceIT_E4typeEOS5_ @297
    _ZSt4sqrtf @298
    _ZSt4swapIPfEvRT_S2_ @299
    _ZSt4swapIfEvRT_S1_ @300
    _ZSt6fill_nIPfyfET_S1_T0_RKT1_ @301
    _ZSt7forwardIR8MaterialEOT_RNSt16remove_referenceIS2_E4typeE @302
    _ZSt7forwardIR8TriangleEOT_RNSt16remove_referenceIS2_E4typeE @303
    _ZSt7forwardIR8vector3dEOT_RNSt16remove_referenceIS2_E4typeE @304
    _ZSt7forwardIRKSt6vectorIfSaIfEEEOT_RNSt16remove_referenceIS5_E4typeE @305
    _ZSt7forwardIRKfEOT_RNSt16remove_referenceIS2_E4typeE @306
    _ZSt7forwardIRfEOT_RNSt16remove_referenceIS1_E4typeE @307
    _ZSt7forwardISt6vectorIfSaIfEEEOT_RNSt16remove_referenceIS3_E4typeE @308
    _ZSt8_DestroyI8TriangleEvPT_ @309
    _ZSt8_DestroyIN9__gnu_cxx17__normal_iteratorIPfSt6vectorIfSaIfEEEEEvT_S7_ @310
    _ZSt8_DestroyIN9__gnu_cxx17__normal_iteratorIPfSt6vectorIfSaIfEEEEfEvT_S7_RSaIT0_E @311
    _ZSt8_DestroyIP8TriangleEvT_S2_ @312
    _ZSt8_DestroyIP8TriangleS0_EvT_S2_RSaIT0_E @313
    _ZSt8_DestroyIPSt6vectorIfSaIfEEEvT_S4_ @314
    _ZSt8_DestroyIPSt6vectorIfSaIfEES2_EvT_S4_RSaIT0_E @315
    _ZSt8_DestroyIPfEvT_S1_ @316
    _ZSt8_DestroyIPffEvT_S1_RSaIT0_E @317
    _ZSt8_DestroyISt6vectorIfSaIfEEEvPT_ @318
    _ZSt8__fill_aIPSt6vectorIfSaIfEES2_EN9__gnu_cxx11__enable_ifIXntsrSt11__is_scalarIT0_E7__valueEvE6__typeET_SB_RKS7_ @319
    _ZSteqIPSt6vectorIfSaIfEEEbRKSt13move_iteratorIT_ES8_ @320
    _ZStneIPSt6vectorIfSaIfEEEbRKSt13move_iteratorIT_ES8_ @321
    _ZStneIfEbRKSaIT_ES3_ @322
    _ZTISt11logic_error @323 DATA
    _ZTISt12out_of_range @324 DATA
    _ZTISt9exception @325 DATA
    _ZTSSt11logic_error @326 DATA
    _ZTSSt12out_of_range @327 DATA
    _ZTSSt9exception @328 DATA
    _ZdlPvS_ @329
    _ZlsRSo8vector3d @330
    _ZnwyPv @331
