EXPORTS
    _ZN6Camera10setGravityEf @1
    _ZN6Camera11moveForwardEf @2
    _ZN6Camera11rotatePitchEf @3
    _ZN6Camera11setPositionE8vector3d @4
    _ZN6Camera12updateAnglesEff @5
    _ZN6Camera15moveRightSimpleEf @6
    _ZN6Camera17moveForwardSimpleEf @7
    _ZN6Camera5getUpEv @8
    _ZN6Camera5setUpE8vector3d @9
    _ZN6Camera6getYawEv @10
    _ZN6Camera6moveUpEf @11
    _ZN6Camera6setYawEf @12
    _ZN6Camera8getPitchEv @13
    _ZN6Camera8setPitchEf @14
    _ZN6Camera9getTargetEv @15
    _ZN6Camera9moveRightEf @16
    _ZN6Camera9rotateYawEf @17
    _ZN6Camera9setTargetE8vector3d @18
    _ZN6CameraC1Ev @19
    _ZN6CameraC2Ev @20
    _ZN6CameraD1Ev @21
    _ZN6CameraD2Ev @22
    _ZN8vector3d12crossproductERKS_ @23
    _ZN8vector3d6changeES_ @24
    _ZN8vector3d6changeEfff @25
    _ZN8vector3d6lengthEv @26
    _ZN8vector3d7changeXEf @27
    _ZN8vector3d7changeYEf @28
    _ZN8vector3d7changeZEf @29
    _ZN8vector3d7reflectERKS_ @30
    _ZN8vector3d9normaliseERKS_ @31
    _ZN8vector3d9normalizeEv @32
    _ZN8vector3dC1Eff @33
    _ZN8vector3dC1Efff @34
    _ZN8vector3dC1Ev @35
    _ZN8vector3dC2Eff @36
    _ZN8vector3dC2Efff @37
    _ZN8vector3dC2Ev @38
    _ZN8vector3dD1Ev @39
    _ZN8vector3ddVERKf @40
    _ZN8vector3ddvERKf @41
    _ZN8vector3dmIERKS_ @42
    _ZN8vector3dmLERKf @43
    _ZN8vector3dneERKS_ @44
    _ZN8vector3dpLERKS_ @45
    _ZN8vector4dC1Effff @46
    _ZN8vector4dC1Ev @47
    _ZN8vector4dC2Effff @48
    _ZN8vector4dC2Ev @49
    _ZN9Matrix4x410setScalingEfff @50
    _ZN9Matrix4x411setRotationEfff @51
    _ZN9Matrix4x412setRotationXEf @52
    _ZN9Matrix4x412setRotationYEf @53
    _ZN9Matrix4x412setRotationZEf @54
    _ZN9Matrix4x414setTranslationEfff @55
    _ZN9Matrix4x49setColumnEiRK8vector3d @56
    _ZN9Matrix4x4C1EPA4_f @57
    _ZN9Matrix4x4C1Ev @58
    _ZN9Matrix4x4C2EPA4_f @59
    _ZN9Matrix4x4C2Ev @60
    _ZNK6Camera10getForwardEv @61
    _ZNK6Camera11getPositionEv @62
    _ZNK6Camera12getRotationXEv @63
    _ZNK6Camera12getRotationYEv @64
    _ZNK6Camera12getRotationZEv @65
    _ZNK6Camera13getViewMatrixERKS_i @66
    _ZNK6Camera14getOrientationER8vector3dS1_S1_ @67
    _ZNK6Camera15applyViewMatrixERK8vector3dRKS_ @68
    _ZNK6Camera19getProjectionMatrixEv @69
    _ZNK6Camera8getRightEv @70
    _ZNK8vector3d10dotproductERKS_ @71
    _ZNK8vector3d3dotERKS_S1_ @72
    _ZNK8vector3d5crossERKS_S1_ @73
    _ZNK8vector3deqERKS_ @74
    _ZNK8vector3dixEi @75
    _ZNK8vector3dltERKS_ @76
    _ZNK8vector3dmiERKS_ @77
    _ZNK8vector3dmlERKf @78
    _ZNK8vector3dplERKS_ @79
    _ZNK8vector4d9normalizeEv @80
    _ZNK8vector4dmiERKS_ @81
    _ZNK8vector4dmlEf @82
    _ZNK8vector4dplERKS_ @83
    _ZNK9Matrix4x410multiply4dERK8vector3d @84
    _ZNK9Matrix4x410multiply4dERK8vector4d @85
    _ZNK9Matrix4x415transformVectorERK8vector3d @86
    _ZNK9Matrix4x45applyERK8vector3d @87
    _ZNK9Matrix4x47inverseEv @88
    _ZNK9Matrix4x48multiplyERK8vector3d @89
    _ZNK9Matrix4x4mlERK8vector3d @90
    _ZNK9Matrix4x4mlERKS_ @91
    _ZSt3absf @92
    _ZSt3cosf @93
    _ZSt3sinf @94
    _ZSt3tanf @95
    _ZSt4asinf @96
    _ZSt4moveIRfEONSt16remove_referenceIT_E4typeEOS2_ @97
    _ZSt4sqrtf @98
    _ZSt4swapIfEvRT_S1_ @99
    _ZSt5atan2ff @100
    _ZTISt11logic_error @101 DATA
    _ZTISt12out_of_range @102 DATA
    _ZTISt9exception @103 DATA
    _ZTSSt11logic_error @104 DATA
    _ZTSSt12out_of_range @105 DATA
    _ZTSSt9exception @106 DATA
    _ZlsRSo8vector3d @107
    cam @108 DATA
