EXPORTS
    _ZN6object11applyMatrixEv @1
    _ZN6object11computeAABBEv @2
    _ZN6object11getLocationEv @3
    _ZN6object11setLocationE8vector3d @4
    _ZN6object11setRotationE8vector3d @5
    _ZN6object14getBoundingBoxEv @6
    _ZN6object14getScaleMatrixEv @7
    _ZN6object18getRotationMatrixXEv @8
    _ZN6object18getRotationMatrixYEv @9
    _ZN6object18getRotationMatrixZEv @10
    _ZN6object20getTranslationMatrixEv @11
    _ZN6object4drawEP12SDL_RendereriiRK6CameraRSt6vectorI8TriangleSaIS6_EE @12
    _ZN6object6updateEv @13
    _ZN6objectC1E8vector3dS0_S0_PS_ @14
    _ZN6objectC1E8vector3dS0_S0_RKSsb @15
    _ZN6objectC2E8vector3dS0_S0_PS_ @16
    _ZN6objectC2E8vector3dS0_S0_RKSsb @17
    _ZN6objectD1Ev @18
    _ZN6objectD2Ev @19
    _ZN8MaterialC1ERKS_ @20
    _ZN8MaterialD1Ev @21
    _ZN8MaterialaSERKS_ @22
    _ZN8TriangleC1ERKS_ @23
    _ZN8TriangleD1Ev @24
    _ZN8TriangleaSERKS_ @25
    _ZN8vector3d12crossproductERKS_ @26
    _ZN8vector3d6changeES_ @27
    _ZN8vector3d6changeEfff @28
    _ZN8vector3d6lengthEv @29
    _ZN8vector3d7changeXEf @30
    _ZN8vector3d7changeYEf @31
    _ZN8vector3d7changeZEf @32
    _ZN8vector3d7reflectERKS_ @33
    _ZN8vector3d9normaliseERKS_ @34
    _ZN8vector3d9normalizeEv @35
    _ZN8vector3dC1Eff @36
    _ZN8vector3dC1Efff @37
    _ZN8vector3dC1Ev @38
    _ZN8vector3dC2Eff @39
    _ZN8vector3dC2Efff @40
    _ZN8vector3dC2Ev @41
    _ZN8vector3dD1Ev @42
    _ZN8vector3ddVERKf @43
    _ZN8vector3ddvERKf @44
    _ZN8vector3dmIERKS_ @45
    _ZN8vector3dmLERKf @46
    _ZN8vector3dneERKS_ @47
    _ZN8vector3dpLERKS_ @48
    _ZN8vector4dC1Effff @49
    _ZN8vector4dC1Ev @50
    _ZN8vector4dC2Effff @51
    _ZN8vector4dC2Ev @52
    _ZN9Matrix4x410setScalingEfff @53
    _ZN9Matrix4x411setRotationEfff @54
    _ZN9Matrix4x412setRotationXEf @55
    _ZN9Matrix4x412setRotationYEf @56
    _ZN9Matrix4x412setRotationZEf @57
    _ZN9Matrix4x414setTranslationEfff @58
    _ZN9Matrix4x49setColumnEiRK8vector3d @59
    _ZN9Matrix4x4C1EPA4_f @60
    _ZN9Matrix4x4C1Ev @61
    _ZN9Matrix4x4C2EPA4_f @62
    _ZN9Matrix4x4C2Ev @63
    _ZN9__gnu_cxx13new_allocatorI8TriangleE10deallocateEPS1_y @64
    _ZN9__gnu_cxx13new_allocatorI8TriangleE7destroyIS1_EEvPT_ @65
    _ZN9__gnu_cxx13new_allocatorI8TriangleE8allocateEyPKv @66
    _ZN9__gnu_cxx13new_allocatorI8TriangleE9constructIS1_IRKS1_EEEvPT_DpOT0_ @67
    _ZN9__gnu_cxx13new_allocatorI8TriangleEC2Ev @68
    _ZN9__gnu_cxx13new_allocatorI8TriangleED2Ev @69
    _ZN9__gnu_cxx14__alloc_traitsISaI8TriangleEE15_S_always_equalEv @70
    _ZN9__gnu_cxx14__alloc_traitsISaI8TriangleEE27_S_propagate_on_copy_assignEv @71
    _ZN9__gnu_cxx17__normal_iteratorIP8TriangleSt6vectorIS1_SaIS1_EEEC1ERKS2_ @72
    _ZN9__gnu_cxx17__normal_iteratorIP8TriangleSt6vectorIS1_SaIS1_EEEppEv @73
    _ZN9__gnu_cxx17__normal_iteratorIPK8TriangleSt6vectorIS1_SaIS1_EEEC1ERKS3_ @74
    _ZN9__gnu_cxx17__normal_iteratorIPK8TriangleSt6vectorIS1_SaIS1_EEEppEv @75
    _ZN9__gnu_cxxneIP8TriangleSt6vectorIS1_SaIS1_EEEEbRKNS_17__normal_iteratorIT_T0_EESB_ @76
    _ZN9__gnu_cxxneIPK8TriangleSt6vectorIS1_SaIS1_EEEEbRKNS_17__normal_iteratorIT_T0_EESC_ @77
    _ZNK6object15isInViewFrustumERK6Camera8vector3d @78
    _ZNK6object7getSizeEv @79
    _ZNK6object9getCenterEv @80
    _ZNK6object9getNormalEv @81
    _ZNK6object9isCloseToE8vector3dfS0_ @82
    _ZNK8vector3d10dotproductERKS_ @83
    _ZNK8vector3d3dotERKS_S1_ @84
    _ZNK8vector3d5crossERKS_S1_ @85
    _ZNK8vector3deqERKS_ @86
    _ZNK8vector3dixEi @87
    _ZNK8vector3dltERKS_ @88
    _ZNK8vector3dmiERKS_ @89
    _ZNK8vector3dmlERKf @90
    _ZNK8vector3dplERKS_ @91
    _ZNK8vector4d9normalizeEv @92
    _ZNK8vector4dmiERKS_ @93
    _ZNK8vector4dmlEf @94
    _ZNK8vector4dplERKS_ @95
    _ZNK9Matrix4x415transformVectorERK8vector3d @96
    _ZNK9Matrix4x45applyERK8vector3d @97
    _ZNK9Matrix4x47inverseEv @98
    _ZNK9Matrix4x48multiplyERK8vector3d @99
    _ZNK9Matrix4x4mlERK8vector3d @100
    _ZNK9Matrix4x4mlERKS_ @101
    _ZNK9__gnu_cxx13new_allocatorI8TriangleE8max_sizeEv @102
    _ZNK9__gnu_cxx17__normal_iteratorIP8TriangleSt6vectorIS1_SaIS1_EEE4baseEv @103
    _ZNK9__gnu_cxx17__normal_iteratorIP8TriangleSt6vectorIS1_SaIS1_EEEdeEv @104
    _ZNK9__gnu_cxx17__normal_iteratorIPK8TriangleSt6vectorIS1_SaIS1_EEE4baseEv @105
    _ZNK9__gnu_cxx17__normal_iteratorIPK8TriangleSt6vectorIS1_SaIS1_EEEdeEv @106
    _ZNKSt12_Vector_baseI8TriangleSaIS0_EE19_M_get_Tp_allocatorEv @107
    _ZNKSt16initializer_listI8vector3dE3endEv @108
    _ZNKSt16initializer_listI8vector3dE4sizeEv @109
    _ZNKSt16initializer_listI8vector3dE5beginEv @110
    _ZNKSt6vectorI8TriangleSaIS0_EE12_M_check_lenEyPKc @111
    _ZNKSt6vectorI8TriangleSaIS0_EE3endEv @112
    _ZNKSt6vectorI8TriangleSaIS0_EE4sizeEv @113
    _ZNKSt6vectorI8TriangleSaIS0_EE5beginEv @114
    _ZNKSt6vectorI8TriangleSaIS0_EE8capacityEv @115
    _ZNKSt6vectorI8TriangleSaIS0_EE8max_sizeEv @116
    _ZNSaI8TriangleEC2Ev @117
    _ZNSaI8TriangleED2Ev @118
    _ZNSt10_Iter_baseIN9__gnu_cxx17__normal_iteratorIP8TriangleSt6vectorIS2_SaIS2_EEEELb1EE7_S_baseES7_ @119
    _ZNSt10_Iter_baseIN9__gnu_cxx17__normal_iteratorIPK8TriangleSt6vectorIS2_SaIS2_EEEELb0EE7_S_baseES8_ @120
    _ZNSt10_Iter_baseIN9__gnu_cxx17__normal_iteratorIPK8TriangleSt6vectorIS2_SaIS2_EEEELb1EE7_S_baseES8_ @121
    _ZNSt10_Iter_baseIP8TriangleLb0EE7_S_baseES1_ @122
    _ZNSt11__copy_moveILb0ELb0ESt26random_access_iterator_tagE8__copy_mIP8TriangleS4_EET0_T_S6_S5_ @123
    _ZNSt11__copy_moveILb0ELb0ESt26random_access_iterator_tagE8__copy_mIPK8TrianglePS3_EET0_T_S8_S7_ @124
    _ZNSt12_Destroy_auxILb0EE9__destroyIN9__gnu_cxx17__normal_iteratorIP8TriangleSt6vectorIS4_SaIS4_EEEEEEvT_SA_ @125
    _ZNSt12_Destroy_auxILb0EE9__destroyIP8TriangleEEvT_S4_ @126
    _ZNSt12_Vector_baseI8TriangleSaIS0_EE11_M_allocateEy @127
    _ZNSt12_Vector_baseI8TriangleSaIS0_EE12_Vector_implC1Ev @128
    _ZNSt12_Vector_baseI8TriangleSaIS0_EE12_Vector_implD1Ev @129
    _ZNSt12_Vector_baseI8TriangleSaIS0_EE13_M_deallocateEPS0_y @130
    _ZNSt12_Vector_baseI8TriangleSaIS0_EE19_M_get_Tp_allocatorEv @131
    _ZNSt12_Vector_baseI8TriangleSaIS0_EEC2Ev @132
    _ZNSt12_Vector_baseI8TriangleSaIS0_EED2Ev @133
    _ZNSt16allocator_traitsISaI8TriangleEE10_S_destroyIS0_EENSt9enable_ifIXsrSt6__and_IINS2_16__destroy_helperIT_E4typeEEE5valueEvE4typeERS1_PS7_ @134
    _ZNSt16allocator_traitsISaI8TriangleEE10deallocateERS1_PS0_y @135
    _ZNSt16allocator_traitsISaI8TriangleEE11_S_max_sizeIKS1_vEEyRT_i @136
    _ZNSt16allocator_traitsISaI8TriangleEE12_S_constructIS0_IRKS0_EEENSt9enable_ifIXsrSt6__and_IINS2_18__construct_helperIT_IDpT0_EE4typeEEE5valueEvE4typeERS1_PS9_DpOSA_ @137
    _ZNSt16allocator_traitsISaI8TriangleEE7destroyIS0_EEvRS1_PT_ @138
    _ZNSt16allocator_traitsISaI8TriangleEE8allocateERS1_y @139
    _ZNSt16allocator_traitsISaI8TriangleEE8max_sizeERKS1_ @140
    _ZNSt16allocator_traitsISaI8TriangleEE9constructIS0_IRKS0_EEEDTcl12_S_constructfp_fp0_spcl7forwardIT0_Efp1_EEERS1_PT_DpOS6_ @141
    _ZNSt20__uninitialized_copyILb0EE13__uninit_copyIN9__gnu_cxx17__normal_iteratorIPK8TriangleSt6vectorIS4_SaIS4_EEEEPS4_EET0_T_SD_SC_ @142
    _ZNSt20__uninitialized_copyILb0EE13__uninit_copyIP8TriangleS3_EET0_T_S5_S4_ @143
    _ZNSt6vectorI8TriangleSaIS0_EE15_M_erase_at_endEPS0_ @144
    _ZNSt6vectorI8TriangleSaIS0_EE19_M_emplace_back_auxIIRKS0_EEEvDpOT_ @145
    _ZNSt6vectorI8TriangleSaIS0_EE20_M_allocate_and_copyIN9__gnu_cxx17__normal_iteratorIPKS0_S2_EEEEPS0_yT_SA_ @146
    _ZNSt6vectorI8TriangleSaIS0_EE3endEv @147
    _ZNSt6vectorI8TriangleSaIS0_EE5beginEv @148
    _ZNSt6vectorI8TriangleSaIS0_EE5clearEv @149
    _ZNSt6vectorI8TriangleSaIS0_EE9push_backERKS0_ @150
    _ZNSt6vectorI8TriangleSaIS0_EEC1Ev @151
    _ZNSt6vectorI8TriangleSaIS0_EED1Ev @152
    _ZNSt6vectorI8TriangleSaIS0_EEaSERKS2_ @153
    _ZSt10_ConstructI8TriangleIRKS0_EEvPT_DpOT0_ @154
    _ZSt10_ConstructI8TriangleIRS0_EEvPT_DpOT0_ @155
    _ZSt11__addressofI8TriangleEPT_RS1_ @156
    _ZSt12__miter_baseIN9__gnu_cxx17__normal_iteratorIPK8TriangleSt6vectorIS2_SaIS2_EEEEENSt11_Miter_baseIT_E13iterator_typeESA_ @157
    _ZSt12__miter_baseIP8TriangleENSt11_Miter_baseIT_E13iterator_typeES3_ @158
    _ZSt12__niter_baseIN9__gnu_cxx17__normal_iteratorIP8TriangleSt6vectorIS2_SaIS2_EEEEENSt11_Niter_baseIT_E13iterator_typeES9_ @159
    _ZSt12__niter_baseIN9__gnu_cxx17__normal_iteratorIPK8TriangleSt6vectorIS2_SaIS2_EEEEENSt11_Niter_baseIT_E13iterator_typeESA_ @160
    _ZSt12__niter_baseIP8TriangleENSt11_Niter_baseIT_E13iterator_typeES3_ @161
    _ZSt13__copy_move_aILb0EP8TriangleS1_ET1_T0_S3_S2_ @162
    _ZSt13__copy_move_aILb0EPK8TrianglePS0_ET1_T0_S5_S4_ @163
    _ZSt14__copy_move_a2ILb0EN9__gnu_cxx17__normal_iteratorIPK8TriangleSt6vectorIS2_SaIS2_EEEENS1_IPS2_S7_EEET1_T0_SC_SB_ @164
    _ZSt14__copy_move_a2ILb0EP8TriangleS1_ET1_T0_S3_S2_ @165
    _ZSt15__alloc_on_copyISaI8TriangleEEvRT_RKS2_ @166
    _ZSt18__do_alloc_on_copyISaI8TriangleEEvRT_RKS2_St17integral_constantIbLb0EE @167
    _ZSt18uninitialized_copyIN9__gnu_cxx17__normal_iteratorIPK8TriangleSt6vectorIS2_SaIS2_EEEEPS2_ET0_T_SB_SA_ @168
    _ZSt18uninitialized_copyIP8TriangleS1_ET0_T_S3_S2_ @169
    _ZSt22__uninitialized_copy_aIN9__gnu_cxx17__normal_iteratorIPK8TriangleSt6vectorIS2_SaIS2_EEEEPS2_S2_ET0_T_SB_SA_RSaIT1_E @170
    _ZSt22__uninitialized_copy_aIP8TriangleS1_S0_ET0_T_S3_S2_RSaIT1_E @171
    _ZSt32__make_move_if_noexcept_iteratorIP8TriangleS1_ET0_T_ @172
    _ZSt34__uninitialized_move_if_noexcept_aIP8TriangleS1_SaIS0_EET0_T_S4_S3_RT1_ @173
    _ZSt3absf @174
    _ZSt3cosf @175
    _ZSt3maxIfERKT_S2_S2_ @176
    _ZSt3maxIyERKT_S2_S2_ @177
    _ZSt3minIfERKT_S2_S2_ @178
    _ZSt3sinf @179
    _ZSt4copyIN9__gnu_cxx17__normal_iteratorIPK8TriangleSt6vectorIS2_SaIS2_EEEENS1_IPS2_S7_EEET0_T_SC_SB_ @180
    _ZSt4copyIP8TriangleS1_ET0_T_S3_S2_ @181
    _ZSt4sqrtf @182
    _ZSt4swapIfEvRT_S1_ @183
    _ZSt7forwardIR8TriangleEOT_RNSt16remove_referenceIS2_E4typeE @184
    _ZSt7forwardIRK8TriangleEOT_RNSt16remove_referenceIS3_E4typeE @185
    _ZSt8_DestroyI8TriangleEvPT_ @186
    _ZSt8_DestroyIN9__gnu_cxx17__normal_iteratorIP8TriangleSt6vectorIS2_SaIS2_EEEEEvT_S8_ @187
    _ZSt8_DestroyIN9__gnu_cxx17__normal_iteratorIP8TriangleSt6vectorIS2_SaIS2_EEEES2_EvT_S8_RSaIT0_E @188
    _ZSt8_DestroyIP8TriangleEvT_S2_ @189
    _ZSt8_DestroyIP8TriangleS0_EvT_S2_RSaIT0_E @190
    _ZStneI8TriangleEbRKSaIT_ES4_ @191
    _ZTISt11logic_error @192 DATA
    _ZTISt12out_of_range @193 DATA
    _ZTISt9exception @194 DATA
    _ZTSSt11logic_error @195 DATA
    _ZTSSt12out_of_range @196 DATA
    _ZTSSt9exception @197 DATA
    _ZdlPvS_ @198
    _ZlsRSo8vector3d @199
    _ZnwyPv @200
