EXPORTS
    _ZN8MaterialC1EOS_ @1
    _ZN8MaterialC1ERKS_ @2
    _ZN8MaterialC1Ev @3
    _ZN8MaterialD1Ev @4
    _ZN8MaterialaSEOS_ @5
    _ZN8TriangleC1EOS_ @6
    _ZN8TriangleC1ERKS_ @7
    _ZN8TriangleC1Eiii8vector3dS0_S0_S0_S0_S0_8Material @8
    _ZN8TriangleD1Ev @9
    _ZN8vector3d12crossproductERKS_ @10
    _ZN8vector3d6changeES_ @11
    _ZN8vector3d6changeEfff @12
    _ZN8vector3d6lengthEv @13
    _ZN8vector3d7changeXEf @14
    _ZN8vector3d7changeYEf @15
    _ZN8vector3d7changeZEf @16
    _ZN8vector3d7reflectERKS_ @17
    _ZN8vector3d9normaliseERKS_ @18
    _ZN8vector3d9normalizeEv @19
    _ZN8vector3dC1Eff @20
    _ZN8vector3dC1Efff @21
    _ZN8vector3dC1Ev @22
    _ZN8vector3dC2Eff @23
    _ZN8vector3dC2Efff @24
    _ZN8vector3dC2Ev @25
    _ZN8vector3dD1Ev @26
    _ZN8vector3ddVERKf @27
    _ZN8vector3ddvERKf @28
    _ZN8vector3dmIERKS_ @29
    _ZN8vector3dmLERKf @30
    _ZN8vector3dneERKS_ @31
    _ZN8vector3dpLERKS_ @32
    _ZN8vector4dC1Effff @33
    _ZN8vector4dC1Ev @34
    _ZN8vector4dC2Effff @35
    _ZN8vector4dC2Ev @36
    _ZN9__gnu_cxx13new_allocatorI8TriangleE10deallocateEPS1_y @37
    _ZN9__gnu_cxx13new_allocatorI8TriangleE7destroyIS1_EEvPT_ @38
    _ZN9__gnu_cxx13new_allocatorI8TriangleE8allocateEyPKv @39
    _ZN9__gnu_cxx13new_allocatorI8TriangleE9constructIS1_IS1_EEEvPT_DpOT0_ @40
    _ZN9__gnu_cxx13new_allocatorI8vector3dE10deallocateEPS1_y @41
    _ZN9__gnu_cxx13new_allocatorI8vector3dE7destroyIS1_EEvPT_ @42
    _ZN9__gnu_cxx13new_allocatorI8vector3dE8allocateEyPKv @43
    _ZN9__gnu_cxx13new_allocatorI8vector3dE9constructIS1_IRKS1_EEEvPT_DpOT0_ @44
    _ZN9__gnu_cxx13new_allocatorI8vector3dE9constructIS1_IS1_EEEvPT_DpOT0_ @45
    _ZN9__gnu_cxx13new_allocatorI8vector3dEC2ERKS2_ @46
    _ZN9__gnu_cxx13new_allocatorI8vector3dEC2Ev @47
    _ZN9__gnu_cxx13new_allocatorI8vector3dED2Ev @48
    _ZN9__gnu_cxx13new_allocatorISt13_Rb_tree_nodeISt4pairIKSs8MaterialEEE10deallocateEPS6_y @49
    _ZN9__gnu_cxx13new_allocatorISt13_Rb_tree_nodeISt4pairIKSs8MaterialEEE7destroyIS5_EEvPT_ @50
    _ZN9__gnu_cxx13new_allocatorISt13_Rb_tree_nodeISt4pairIKSs8MaterialEEE8allocateEyPKv @51
    _ZN9__gnu_cxx13new_allocatorISt13_Rb_tree_nodeISt4pairIKSs8MaterialEEE9constructIS5_IRKSt21piecewise_construct_tSt5tupleIIRS3_EESC_IIEEEEEvPT_DpOT0_ @52
    _ZN9__gnu_cxx13new_allocatorISt13_Rb_tree_nodeISt4pairIKSs8MaterialEEEC2Ev @53
    _ZN9__gnu_cxx13new_allocatorISt13_Rb_tree_nodeISt4pairIKSs8MaterialEEED2Ev @54
    _ZN9__gnu_cxx13new_allocatorIiE10deallocateEPiy @55
    _ZN9__gnu_cxx13new_allocatorIiE8allocateEyPKv @56
    _ZN9__gnu_cxx13new_allocatorIiEC2ERKS1_ @57
    _ZN9__gnu_cxx13new_allocatorIiEC2Ev @58
    _ZN9__gnu_cxx13new_allocatorIiED2Ev @59
    _ZN9__gnu_cxx16__aligned_bufferISt4pairIKSs8MaterialEE6_M_ptrEv @60
    _ZN9__gnu_cxx16__aligned_bufferISt4pairIKSs8MaterialEE7_M_addrEv @61
    _ZN9__gnu_cxx17__normal_iteratorIP8TriangleSt6vectorIS1_SaIS1_EEEC1ERKS2_ @62
    _ZN9__gnu_cxx17__normal_iteratorIP8TriangleSt6vectorIS1_SaIS1_EEEppEv @63
    _ZN9__gnu_cxxneIP8TriangleSt6vectorIS1_SaIS1_EEEEbRKNS_17__normal_iteratorIT_T0_EESB_ @64
    _ZN9objloader13loadMaterialsERKSsRSt3mapISs8MaterialSt4lessISsESaISt4pairIS0_S3_EEE @65
    _ZN9objloader13smoothNormalsERSt6vectorI8TriangleSaIS1_EERS0_I8vector3dSaIS5_EEi @66
    _ZN9objloader4loadERKSsRSt6vectorI8TriangleSaIS3_EE @67
    _ZN9objloaderC1Ev @68
    _ZN9objloaderC2Ev @69
    _ZN9objloaderD1Ev @70
    _ZN9objloaderD2Ev @71
    _ZNK8vector3d10dotproductERKS_ @72
    _ZNK8vector3d3dotERKS_S1_ @73
    _ZNK8vector3d5crossERKS_S1_ @74
    _ZNK8vector3deqERKS_ @75
    _ZNK8vector3dixEi @76
    _ZNK8vector3dltERKS_ @77
    _ZNK8vector3dmiERKS_ @78
    _ZNK8vector3dmlERKf @79
    _ZNK8vector3dplERKS_ @80
    _ZNK8vector4d9normalizeEv @81
    _ZNK8vector4dmiERKS_ @82
    _ZNK8vector4dmlEf @83
    _ZNK8vector4dplERKS_ @84
    _ZNK9__gnu_cxx13new_allocatorI8TriangleE8max_sizeEv @85
    _ZNK9__gnu_cxx13new_allocatorI8vector3dE8max_sizeEv @86
    _ZNK9__gnu_cxx13new_allocatorISt13_Rb_tree_nodeISt4pairIKSs8MaterialEEE8max_sizeEv @87
    _ZNK9__gnu_cxx13new_allocatorIiE8max_sizeEv @88
    _ZNK9__gnu_cxx16__aligned_bufferISt4pairIKSs8MaterialEE6_M_ptrEv @89
    _ZNK9__gnu_cxx16__aligned_bufferISt4pairIKSs8MaterialEE7_M_addrEv @90
    _ZNK9__gnu_cxx17__normal_iteratorIP8TriangleSt6vectorIS1_SaIS1_EEE4baseEv @91
    _ZNK9__gnu_cxx17__normal_iteratorIP8TriangleSt6vectorIS1_SaIS1_EEEdeEv @92
    _ZNKSt10_Select1stISt4pairIKSs8MaterialEEclERKS3_ @93
    _ZNKSt12_Vector_baseI8TriangleSaIS0_EE19_M_get_Tp_allocatorEv @94
    _ZNKSt12_Vector_baseI8vector3dSaIS0_EE19_M_get_Tp_allocatorEv @95
    _ZNKSt13_Rb_tree_nodeISt4pairIKSs8MaterialEE9_M_valptrEv @96
    _ZNKSt13move_iteratorIP8vector3dE4baseEv @97
    _ZNKSt13move_iteratorIP8vector3dEdeEv @98
    _ZNKSt17_Rb_tree_iteratorISt4pairIKSs8MaterialEEdeEv @99
    _ZNKSt17_Rb_tree_iteratorISt4pairIKSs8MaterialEEeqERKS4_ @100
    _ZNKSt23_Rb_tree_const_iteratorISt4pairIKSs8MaterialEE13_M_const_castEv @101
    _ZNKSt3mapISs8MaterialSt4lessISsESaISt4pairIKSsS0_EEE8key_compEv @102
    _ZNKSt4lessISsEclERKSsS2_ @103
    _ZNKSt6vectorI8TriangleSaIS0_EE12_M_check_lenEyPKc @104
    _ZNKSt6vectorI8TriangleSaIS0_EE4sizeEv @105
    _ZNKSt6vectorI8TriangleSaIS0_EE8max_sizeEv @106
    _ZNKSt6vectorI8vector3dSaIS0_EE12_M_check_lenEyPKc @107
    _ZNKSt6vectorI8vector3dSaIS0_EE4sizeEv @108
    _ZNKSt6vectorI8vector3dSaIS0_EE8max_sizeEv @109
    _ZNKSt8_Rb_treeISsSt4pairIKSs8MaterialESt10_Select1stIS3_ESt4lessISsESaIS3_EE4sizeEv @110
    _ZNKSt8_Rb_treeISsSt4pairIKSs8MaterialESt10_Select1stIS3_ESt4lessISsESaIS3_EE8key_compEv @111
    _ZNSaI8vector3dEC1Ev @112
    _ZNSaI8vector3dEC2ERKS0_ @113
    _ZNSaI8vector3dEC2Ev @114
    _ZNSaI8vector3dED1Ev @115
    _ZNSaI8vector3dED2Ev @116
    _ZNSaISt13_Rb_tree_nodeISt4pairIKSs8MaterialEEEC2Ev @117
    _ZNSaISt13_Rb_tree_nodeISt4pairIKSs8MaterialEEED2Ev @118
    _ZNSaIiEC1Ev @119
    _ZNSaIiEC2ERKS_ @120
    _ZNSaIiED1Ev @121
    _ZNSaIiED2Ev @122
    _ZNSt10_Head_baseILy0ERKSsLb0EE7_M_headERS2_ @123
    _ZNSt10_Head_baseILy0ERKSsLb0EEC2ES1_ @124
    _ZNSt10_Iter_baseIPiLb0EE7_S_baseES0_ @125
    _ZNSt11_Tuple_implILy0EIRKSsEE7_M_headERS2_ @126
    _ZNSt11_Tuple_implILy0EIRKSsEE7_M_tailERS2_ @127
    _ZNSt11_Tuple_implILy0EIRKSsEEC2EOS2_ @128
    _ZNSt11_Tuple_implILy0EIRKSsEEC2ES1_ @129
    _ZNSt11_Tuple_implILy1EIEEC2Ev @130
    _ZNSt11char_traitsIcE6lengthEPKc @131
    _ZNSt12_Destroy_auxILb0EE9__destroyIP8TriangleEEvT_S4_ @132
    _ZNSt12_Destroy_auxILb0EE9__destroyIP8vector3dEEvT_S4_ @133
    _ZNSt12_Destroy_auxILb1EE9__destroyIPiEEvT_S3_ @134
    _ZNSt12_Vector_baseI8TriangleSaIS0_EE11_M_allocateEy @135
    _ZNSt12_Vector_baseI8TriangleSaIS0_EE13_M_deallocateEPS0_y @136
    _ZNSt12_Vector_baseI8TriangleSaIS0_EE19_M_get_Tp_allocatorEv @137
    _ZNSt12_Vector_baseI8vector3dSaIS0_EE11_M_allocateEy @138
    _ZNSt12_Vector_baseI8vector3dSaIS0_EE12_Vector_implC1ERKS1_ @139
    _ZNSt12_Vector_baseI8vector3dSaIS0_EE12_Vector_implC1Ev @140
    _ZNSt12_Vector_baseI8vector3dSaIS0_EE12_Vector_implD1Ev @141
    _ZNSt12_Vector_baseI8vector3dSaIS0_EE13_M_deallocateEPS0_y @142
    _ZNSt12_Vector_baseI8vector3dSaIS0_EE17_M_create_storageEy @143
    _ZNSt12_Vector_baseI8vector3dSaIS0_EE19_M_get_Tp_allocatorEv @144
    _ZNSt12_Vector_baseI8vector3dSaIS0_EEC2Ev @145
    _ZNSt12_Vector_baseI8vector3dSaIS0_EEC2EyRKS1_ @146
    _ZNSt12_Vector_baseI8vector3dSaIS0_EED2Ev @147
    _ZNSt12_Vector_baseIiSaIiEE11_M_allocateEy @148
    _ZNSt12_Vector_baseIiSaIiEE12_Vector_implC1ERKS0_ @149
    _ZNSt12_Vector_baseIiSaIiEE12_Vector_implD1Ev @150
    _ZNSt12_Vector_baseIiSaIiEE13_M_deallocateEPiy @151
    _ZNSt12_Vector_baseIiSaIiEE17_M_create_storageEy @152
    _ZNSt12_Vector_baseIiSaIiEE19_M_get_Tp_allocatorEv @153
    _ZNSt12_Vector_baseIiSaIiEEC2EyRKS0_ @154
    _ZNSt12_Vector_baseIiSaIiEED2Ev @155
    _ZNSt13_Rb_tree_nodeISt4pairIKSs8MaterialEE9_M_valptrEv @156
    _ZNSt13move_iteratorIP8vector3dEC1ES1_ @157
    _ZNSt13move_iteratorIP8vector3dEppEv @158
    _ZNSt16allocator_traitsISaI8TriangleEE10_S_destroyIS0_EENSt9enable_ifIXsrSt6__and_IINS2_16__destroy_helperIT_E4typeEEE5valueEvE4typeERS1_PS7_ @159
    _ZNSt16allocator_traitsISaI8TriangleEE10deallocateERS1_PS0_y @160
    _ZNSt16allocator_traitsISaI8TriangleEE11_S_max_sizeIKS1_vEEyRT_i @161
    _ZNSt16allocator_traitsISaI8TriangleEE12_S_constructIS0_IS0_EEENSt9enable_ifIXsrSt6__and_IINS2_18__construct_helperIT_IDpT0_EE4typeEEE5valueEvE4typeERS1_PS7_DpOS8_ @162
    _ZNSt16allocator_traitsISaI8TriangleEE7destroyIS0_EEvRS1_PT_ @163
    _ZNSt16allocator_traitsISaI8TriangleEE8allocateERS1_y @164
    _ZNSt16allocator_traitsISaI8TriangleEE8max_sizeERKS1_ @165
    _ZNSt16allocator_traitsISaI8TriangleEE9constructIS0_IS0_EEEDTcl12_S_constructfp_fp0_spcl7forwardIT0_Efp1_EEERS1_PT_DpOS4_ @166
    _ZNSt16allocator_traitsISaI8vector3dEE10_S_destroyIS0_EENSt9enable_ifIXsrSt6__and_IINS2_16__destroy_helperIT_E4typeEEE5valueEvE4typeERS1_PS7_ @167
    _ZNSt16allocator_traitsISaI8vector3dEE10deallocateERS1_PS0_y @168
    _ZNSt16allocator_traitsISaI8vector3dEE11_S_max_sizeIKS1_vEEyRT_i @169
    _ZNSt16allocator_traitsISaI8vector3dEE12_S_constructIS0_IRKS0_EEENSt9enable_ifIXsrSt6__and_IINS2_18__construct_helperIT_IDpT0_EE4typeEEE5valueEvE4typeERS1_PS9_DpOSA_ @170
    _ZNSt16allocator_traitsISaI8vector3dEE12_S_constructIS0_IS0_EEENSt9enable_ifIXsrSt6__and_IINS2_18__construct_helperIT_IDpT0_EE4typeEEE5valueEvE4typeERS1_PS7_DpOS8_ @171
    _ZNSt16allocator_traitsISaI8vector3dEE7destroyIS0_EEvRS1_PT_ @172
    _ZNSt16allocator_traitsISaI8vector3dEE8allocateERS1_y @173
    _ZNSt16allocator_traitsISaI8vector3dEE8max_sizeERKS1_ @174
    _ZNSt16allocator_traitsISaI8vector3dEE9constructIS0_IRKS0_EEEDTcl12_S_constructfp_fp0_spcl7forwardIT0_Efp1_EEERS1_PT_DpOS6_ @175
    _ZNSt16allocator_traitsISaI8vector3dEE9constructIS0_IS0_EEEDTcl12_S_constructfp_fp0_spcl7forwardIT0_Efp1_EEERS1_PT_DpOS4_ @176
    _ZNSt16allocator_traitsISaISt13_Rb_tree_nodeISt4pairIKSs8MaterialEEEE10_S_destroyIS4_EENSt9enable_ifIXsrSt6__and_IINS7_16__destroy_helperIT_E4typeEEE5valueEvE4typeERS6_PSC_ @177
    _ZNSt16allocator_traitsISaISt13_Rb_tree_nodeISt4pairIKSs8MaterialEEEE10deallocateERS6_PS5_y @178
    _ZNSt16allocator_traitsISaISt13_Rb_tree_nodeISt4pairIKSs8MaterialEEEE12_S_constructIS4_IRKSt21piecewise_construct_tSt5tupleIIRS2_EESC_IIEEEEENSt9enable_ifIXsrSt6__and_IINS7_18__construct_helperIT_IDpT0_EE4typeEEE5valueEvE4typeERS6_PSJ_DpOSK_ @179
    _ZNSt16allocator_traitsISaISt13_Rb_tree_nodeISt4pairIKSs8MaterialEEEE7destroyIS4_EEvRS6_PT_ @180
    _ZNSt16allocator_traitsISaISt13_Rb_tree_nodeISt4pairIKSs8MaterialEEEE8allocateERS6_y @181
    _ZNSt16allocator_traitsISaISt13_Rb_tree_nodeISt4pairIKSs8MaterialEEEE9constructIS4_IRKSt21piecewise_construct_tSt5tupleIIRS2_EESC_IIEEEEEDTcl12_S_constructfp_fp0_spcl7forwardIT0_Efp1_EEERS6_PT_DpOSG_ @182
    _ZNSt16allocator_traitsISaIiEE10deallocateERS0_Piy @183
    _ZNSt16allocator_traitsISaIiEE8allocateERS0_y @184
    _ZNSt17_Rb_tree_iteratorISt4pairIKSs8MaterialEEC1EPSt13_Rb_tree_nodeIS3_E @185
    _ZNSt17_Rb_tree_iteratorISt4pairIKSs8MaterialEEmmEv @186
    _ZNSt17_Rb_tree_iteratorISt4pairIKSs8MaterialEEppEv @187
    _ZNSt20__uninitialized_copyILb0EE13__uninit_copyIP8TriangleS3_EET0_T_S5_S4_ @188
    _ZNSt20__uninitialized_copyILb0EE13__uninit_copyISt13move_iteratorIP8vector3dES4_EET0_T_S7_S6_ @189
    _ZNSt22__uninitialized_fill_nILb0EE15__uninit_fill_nIP8vector3dyS2_EEvT_T0_RKT1_ @190
    _ZNSt22__uninitialized_fill_nILb1EE15__uninit_fill_nIPiyiEEvT_T0_RKT1_ @191
    _ZNSt23_Rb_tree_const_iteratorISt4pairIKSs8MaterialEEC1ERKSt17_Rb_tree_iteratorIS3_E @192
    _ZNSt3mapISs8MaterialSt4lessISsESaISt4pairIKSsS0_EEE11lower_boundERS4_ @193
    _ZNSt3mapISs8MaterialSt4lessISsESaISt4pairIKSsS0_EEE3endEv @194
    _ZNSt3mapISs8MaterialSt4lessISsESaISt4pairIKSsS0_EEEC1Ev @195
    _ZNSt3mapISs8MaterialSt4lessISsESaISt4pairIKSsS0_EEED1Ev @196
    _ZNSt3mapISs8MaterialSt4lessISsESaISt4pairIKSsS0_EEEixERS4_ @197
    _ZNSt4pairIKSs8MaterialEC1IIRS0_EIEEESt21piecewise_construct_tSt5tupleIIDpT_EES6_IIDpT0_EE @198
    _ZNSt4pairIKSs8MaterialEC1IIRS0_EILy0EEIEIEEERSt5tupleIIDpT_EERS5_IIDpT1_EESt12_Index_tupleIIXspT0_EEESE_IIXspT2_EEE @199
    _ZNSt4pairIKSs8MaterialED1Ev @200
    _ZNSt4pairIPSt18_Rb_tree_node_baseS1_EC1IRPSt13_Rb_tree_nodeIS_IKSs8MaterialEESA_vEEOT_OT0_ @201
    _ZNSt4pairIPSt18_Rb_tree_node_baseS1_EC1IRS1_S4_vEEOT_OT0_ @202
    _ZNSt4pairIPSt18_Rb_tree_node_baseS1_EC1IRS1_vEEOT_RKS1_ @203
    _ZNSt4pairIPSt18_Rb_tree_node_baseS1_EC1IRS1_vEERKS1_OT_ @204
    _ZNSt5tupleIIRKSsEEC1EOS2_ @205
    _ZNSt5tupleIIRKSsEEC1ES1_ @206
    _ZNSt6vectorI8TriangleSaIS0_EE12emplace_backIIS0_EEEvDpOT_ @207
    _ZNSt6vectorI8TriangleSaIS0_EE19_M_emplace_back_auxIIS0_EEEvDpOT_ @208
    _ZNSt6vectorI8TriangleSaIS0_EE3endEv @209
    _ZNSt6vectorI8TriangleSaIS0_EE5beginEv @210
    _ZNSt6vectorI8TriangleSaIS0_EE9push_backEOS0_ @211
    _ZNSt6vectorI8vector3dSaIS0_EE12emplace_backIIS0_EEEvDpOT_ @212
    _ZNSt6vectorI8vector3dSaIS0_EE18_M_fill_initializeEyRKS0_ @213
    _ZNSt6vectorI8vector3dSaIS0_EE19_M_emplace_back_auxIIRKS0_EEEvDpOT_ @214
    _ZNSt6vectorI8vector3dSaIS0_EE19_M_emplace_back_auxIIS0_EEEvDpOT_ @215
    _ZNSt6vectorI8vector3dSaIS0_EE9push_backEOS0_ @216
    _ZNSt6vectorI8vector3dSaIS0_EE9push_backERKS0_ @217
    _ZNSt6vectorI8vector3dSaIS0_EEC1Ev @218
    _ZNSt6vectorI8vector3dSaIS0_EEC1EyRKS0_RKS1_ @219
    _ZNSt6vectorI8vector3dSaIS0_EED1Ev @220
    _ZNSt6vectorI8vector3dSaIS0_EEixEy @221
    _ZNSt6vectorIiSaIiEE18_M_fill_initializeEyRKi @222
    _ZNSt6vectorIiSaIiEEC1EyRKiRKS0_ @223
    _ZNSt6vectorIiSaIiEED1Ev @224
    _ZNSt6vectorIiSaIiEEixEy @225
    _ZNSt8_Rb_treeISsSt4pairIKSs8MaterialESt10_Select1stIS3_ESt4lessISsESaIS3_EE11_M_get_nodeEv @226
    _ZNSt8_Rb_treeISsSt4pairIKSs8MaterialESt10_Select1stIS3_ESt4lessISsESaIS3_EE11_M_leftmostEv @227
    _ZNSt8_Rb_treeISsSt4pairIKSs8MaterialESt10_Select1stIS3_ESt4lessISsESaIS3_EE11_M_put_nodeEPSt13_Rb_tree_nodeIS3_E @228
    _ZNSt8_Rb_treeISsSt4pairIKSs8MaterialESt10_Select1stIS3_ESt4lessISsESaIS3_EE11lower_boundERS1_ @229
    _ZNSt8_Rb_treeISsSt4pairIKSs8MaterialESt10_Select1stIS3_ESt4lessISsESaIS3_EE12_M_rightmostEv @230
    _ZNSt8_Rb_treeISsSt4pairIKSs8MaterialESt10_Select1stIS3_ESt4lessISsESaIS3_EE13_Rb_tree_implIS7_Lb1EE13_M_initializeEv @231
    _ZNSt8_Rb_treeISsSt4pairIKSs8MaterialESt10_Select1stIS3_ESt4lessISsESaIS3_EE13_Rb_tree_implIS7_Lb1EEC1Ev @232
    _ZNSt8_Rb_treeISsSt4pairIKSs8MaterialESt10_Select1stIS3_ESt4lessISsESaIS3_EE13_Rb_tree_implIS7_Lb1EED1Ev @233
    _ZNSt8_Rb_treeISsSt4pairIKSs8MaterialESt10_Select1stIS3_ESt4lessISsESaIS3_EE14_M_create_nodeIIRKSt21piecewise_construct_tSt5tupleIIRS1_EESE_IIEEEEEPSt13_Rb_tree_nodeIS3_EDpOT_ @234
    _ZNSt8_Rb_treeISsSt4pairIKSs8MaterialESt10_Select1stIS3_ESt4lessISsESaIS3_EE14_M_insert_nodeEPSt18_Rb_tree_node_baseSB_PSt13_Rb_tree_nodeIS3_E @235
    _ZNSt8_Rb_treeISsSt4pairIKSs8MaterialESt10_Select1stIS3_ESt4lessISsESaIS3_EE14_M_lower_boundEPSt13_Rb_tree_nodeIS3_ESC_RS1_ @236
    _ZNSt8_Rb_treeISsSt4pairIKSs8MaterialESt10_Select1stIS3_ESt4lessISsESaIS3_EE15_M_destroy_nodeEPSt13_Rb_tree_nodeIS3_E @237
    _ZNSt8_Rb_treeISsSt4pairIKSs8MaterialESt10_Select1stIS3_ESt4lessISsESaIS3_EE21_M_get_Node_allocatorEv @238
    _ZNSt8_Rb_treeISsSt4pairIKSs8MaterialESt10_Select1stIS3_ESt4lessISsESaIS3_EE22_M_emplace_hint_uniqueIIRKSt21piecewise_construct_tSt5tupleIIRS1_EESE_IIEEEEESt17_Rb_tree_iteratorIS3_ESt23_Rb_tree_const_iteratorIS3_EDpOT_ @239
    _ZNSt8_Rb_treeISsSt4pairIKSs8MaterialESt10_Select1stIS3_ESt4lessISsESaIS3_EE24_M_get_insert_unique_posERS1_ @240
    _ZNSt8_Rb_treeISsSt4pairIKSs8MaterialESt10_Select1stIS3_ESt4lessISsESaIS3_EE29_M_get_insert_hint_unique_posESt23_Rb_tree_const_iteratorIS3_ERS1_ @241
    _ZNSt8_Rb_treeISsSt4pairIKSs8MaterialESt10_Select1stIS3_ESt4lessISsESaIS3_EE3endEv @242
    _ZNSt8_Rb_treeISsSt4pairIKSs8MaterialESt10_Select1stIS3_ESt4lessISsESaIS3_EE5beginEv @243
    _ZNSt8_Rb_treeISsSt4pairIKSs8MaterialESt10_Select1stIS3_ESt4lessISsESaIS3_EE6_M_endEv @244
    _ZNSt8_Rb_treeISsSt4pairIKSs8MaterialESt10_Select1stIS3_ESt4lessISsESaIS3_EE6_S_keyEPKSt13_Rb_tree_nodeIS3_E @245
    _ZNSt8_Rb_treeISsSt4pairIKSs8MaterialESt10_Select1stIS3_ESt4lessISsESaIS3_EE6_S_keyEPKSt18_Rb_tree_node_base @246
    _ZNSt8_Rb_treeISsSt4pairIKSs8MaterialESt10_Select1stIS3_ESt4lessISsESaIS3_EE7_S_leftEPSt18_Rb_tree_node_base @247
    _ZNSt8_Rb_treeISsSt4pairIKSs8MaterialESt10_Select1stIS3_ESt4lessISsESaIS3_EE8_M_beginEv @248
    _ZNSt8_Rb_treeISsSt4pairIKSs8MaterialESt10_Select1stIS3_ESt4lessISsESaIS3_EE8_M_eraseEPSt13_Rb_tree_nodeIS3_E @249
    _ZNSt8_Rb_treeISsSt4pairIKSs8MaterialESt10_Select1stIS3_ESt4lessISsESaIS3_EE8_S_rightEPSt18_Rb_tree_node_base @250
    _ZNSt8_Rb_treeISsSt4pairIKSs8MaterialESt10_Select1stIS3_ESt4lessISsESaIS3_EE8_S_valueEPKSt13_Rb_tree_nodeIS3_E @251
    _ZNSt8_Rb_treeISsSt4pairIKSs8MaterialESt10_Select1stIS3_ESt4lessISsESaIS3_EE8_S_valueEPKSt18_Rb_tree_node_base @252
    _ZNSt8_Rb_treeISsSt4pairIKSs8MaterialESt10_Select1stIS3_ESt4lessISsESaIS3_EEC1Ev @253
    _ZNSt8_Rb_treeISsSt4pairIKSs8MaterialESt10_Select1stIS3_ESt4lessISsESaIS3_EED1Ev @254
    _ZSt10_ConstructI8TriangleIRS0_EEvPT_DpOT0_ @255
    _ZSt10_ConstructI8vector3dIRKS0_EEvPT_DpOT0_ @256
    _ZSt10_ConstructI8vector3dIS0_EEvPT_DpOT0_ @257
    _ZSt10__fill_n_aIPiyiEN9__gnu_cxx11__enable_ifIXsrSt11__is_scalarIT1_E7__valueET_E6__typeES6_T0_RKS4_ @258
    _ZSt11__addressofI8TriangleEPT_RS1_ @259
    _ZSt11__addressofI8vector3dEPT_RS1_ @260
    _ZSt12__get_helperILy0ERKSsIEENSt9__add_refIT0_E4typeERSt11_Tuple_implIXT_EIS3_DpT1_EE @261
    _ZSt12__niter_baseIPiENSt11_Niter_baseIT_E13iterator_typeES2_ @262
    _ZSt18uninitialized_copyIP8TriangleS1_ET0_T_S3_S2_ @263
    _ZSt18uninitialized_copyISt13move_iteratorIP8vector3dES2_ET0_T_S5_S4_ @264
    _ZSt20uninitialized_fill_nIP8vector3dyS0_EvT_T0_RKT1_ @265
    _ZSt20uninitialized_fill_nIPiyiEvT_T0_RKT1_ @266
    _ZSt22__uninitialized_copy_aIP8TriangleS1_S0_ET0_T_S3_S2_RSaIT1_E @267
    _ZSt22__uninitialized_copy_aISt13move_iteratorIP8vector3dES2_S1_ET0_T_S5_S4_RSaIT1_E @268
    _ZSt24__uninitialized_fill_n_aIP8vector3dyS0_S0_EvT_T0_RKT1_RSaIT2_E @269
    _ZSt24__uninitialized_fill_n_aIPiyiiEvT_T0_RKT1_RSaIT2_E @270
    _ZSt32__make_move_if_noexcept_iteratorIP8TriangleS1_ET0_T_ @271
    _ZSt32__make_move_if_noexcept_iteratorIP8vector3dSt13move_iteratorIS1_EET0_T_ @272
    _ZSt34__uninitialized_move_if_noexcept_aIP8TriangleS1_SaIS0_EET0_T_S4_S3_RT1_ @273
    _ZSt34__uninitialized_move_if_noexcept_aIP8vector3dS1_SaIS0_EET0_T_S4_S3_RT1_ @274
    _ZSt3getILy0EIRKSsEENSt9__add_refINSt13tuple_elementIXT_ESt5tupleIIDpT0_EEE4typeEE4typeERS7_ @275
    _ZSt3maxIyERKT_S2_S2_ @276
    _ZSt4moveIR8TriangleEONSt16remove_referenceIT_E4typeEOS3_ @277
    _ZSt4moveIR8vector3dEONSt16remove_referenceIT_E4typeEOS3_ @278
    _ZSt4moveIRSt11_Tuple_implILy1EIEEEONSt16remove_referenceIT_E4typeEOS4_ @279
    _ZSt4sqrtf @280
    _ZSt6fill_nIPiyiET_S1_T0_RKT1_ @281
    _ZSt7forwardI8TriangleEOT_RNSt16remove_referenceIS1_E4typeE @282
    _ZSt7forwardI8vector3dEOT_RNSt16remove_referenceIS1_E4typeE @283
    _ZSt7forwardIR8TriangleEOT_RNSt16remove_referenceIS2_E4typeE @284
    _ZSt7forwardIRK8vector3dEOT_RNSt16remove_referenceIS3_E4typeE @285
    _ZSt7forwardIRKSsEOT_RNSt16remove_referenceIS2_E4typeE @286
    _ZSt7forwardIRKSt21piecewise_construct_tEOT_RNSt16remove_referenceIS3_E4typeE @287
    _ZSt7forwardIRPSt13_Rb_tree_nodeISt4pairIKSs8MaterialEEEOT_RNSt16remove_referenceIS8_E4typeE @288
    _ZSt7forwardIRPSt18_Rb_tree_node_baseEOT_RNSt16remove_referenceIS3_E4typeE @289
    _ZSt7forwardISt5tupleIIEEEOT_RNSt16remove_referenceIS2_E4typeE @290
    _ZSt7forwardISt5tupleIIRKSsEEEOT_RNSt16remove_referenceIS4_E4typeE @291
    _ZSt8_DestroyI8TriangleEvPT_ @292
    _ZSt8_DestroyI8vector3dEvPT_ @293
    _ZSt8_DestroyIP8TriangleEvT_S2_ @294
    _ZSt8_DestroyIP8TriangleS0_EvT_S2_RSaIT0_E @295
    _ZSt8_DestroyIP8vector3dEvT_S2_ @296
    _ZSt8_DestroyIP8vector3dS0_EvT_S2_RSaIT0_E @297
    _ZSt8_DestroyIPiEvT_S1_ @298
    _ZSt8_DestroyIPiiEvT_S1_RSaIT0_E @299
    _ZSteqIP8vector3dEbRKSt13move_iteratorIT_ES6_ @300
    _ZSteqIcSt11char_traitsIcESaIcEEbRKSbIT_T0_T1_EPKS3_ @301
    _ZStltIcSt11char_traitsIcESaIcEEbRKSbIT_T0_T1_ES8_ @302
    _ZStneIP8vector3dEbRKSt13move_iteratorIT_ES6_ @303
    _ZStplIcSt11char_traitsIcESaIcEESbIT_T0_T1_EPKS3_RKS6_ @304
    _ZTISt11logic_error @305 DATA
    _ZTISt12out_of_range @306 DATA
    _ZTISt9exception @307 DATA
    _ZTSSt11logic_error @308 DATA
    _ZTSSt12out_of_range @309 DATA
    _ZTSSt9exception @310 DATA
    _ZdlPvS_ @311
    _ZlsRSo8vector3d @312
    _ZnwyPv @313
