EXPORTS
    _Z12getDirectoryRKSs @1
    _ZN3uvsC1ERK8vector2dS2_S2_ @2
    _ZN3uvsC1Ev @3
    _ZN8MaterialC1EOS_ @4
    _ZN8MaterialC1ERKS_ @5
    _ZN8MaterialC1Ev @6
    _ZN8MaterialD1Ev @7
    _ZN8MaterialaSEOS_ @8
    _ZN8TriangleC1EOS_ @9
    _ZN8TriangleC1ERKS_ @10
    _ZN8TriangleC1Eiii8vector3dS0_S0_S0_S0_S0_8Material @11
    _ZN8TriangleC1Eiii8vector3dS0_S0_S0_S0_S0_8Material8vector2dS2_S2_ @12
    _ZN8TriangleD1Ev @13
    _ZN8vector2dC1Eff @14
    _ZN8vector2dC1Ev @15
    _ZN8vector3d12crossproductERKS_ @16
    _ZN8vector3d6changeES_ @17
    _ZN8vector3d6changeEfff @18
    _ZN8vector3d6lengthEv @19
    _ZN8vector3d7changeXEf @20
    _ZN8vector3d7changeYEf @21
    _ZN8vector3d7changeZEf @22
    _ZN8vector3d7reflectERKS_ @23
    _ZN8vector3d9normaliseERKS_ @24
    _ZN8vector3d9normalizeEv @25
    _ZN8vector3dC1Eff @26
    _ZN8vector3dC1Efff @27
    _ZN8vector3dC1Ev @28
    _ZN8vector3dC2Eff @29
    _ZN8vector3dC2Efff @30
    _ZN8vector3dC2Ev @31
    _ZN8vector3dD1Ev @32
    _ZN8vector3ddVERKf @33
    _ZN8vector3ddvERKf @34
    _ZN8vector3dmIERKS_ @35
    _ZN8vector3dmLERKf @36
    _ZN8vector3dneERKS_ @37
    _ZN8vector3dpLERKS_ @38
    _ZN8vector4dC1Effff @39
    _ZN8vector4dC1Ev @40
    _ZN8vector4dC2Effff @41
    _ZN8vector4dC2Ev @42
    _ZN9__gnu_cxx13new_allocatorI8TriangleE10deallocateEPS1_y @43
    _ZN9__gnu_cxx13new_allocatorI8TriangleE7destroyIS1_EEvPT_ @44
    _ZN9__gnu_cxx13new_allocatorI8TriangleE8allocateEyPKv @45
    _ZN9__gnu_cxx13new_allocatorI8TriangleE9constructIS1_IS1_EEEvPT_DpOT0_ @46
    _ZN9__gnu_cxx13new_allocatorI8TriangleEC2ERKS2_ @47
    _ZN9__gnu_cxx13new_allocatorI8TriangleEC2Ev @48
    _ZN9__gnu_cxx13new_allocatorI8TriangleED2Ev @49
    _ZN9__gnu_cxx13new_allocatorI8vector2dE10deallocateEPS1_y @50
    _ZN9__gnu_cxx13new_allocatorI8vector2dE7destroyIS1_EEvPT_ @51
    _ZN9__gnu_cxx13new_allocatorI8vector2dE8allocateEyPKv @52
    _ZN9__gnu_cxx13new_allocatorI8vector2dE9constructIS1_IRKS1_EEEvPT_DpOT0_ @53
    _ZN9__gnu_cxx13new_allocatorI8vector2dEC2Ev @54
    _ZN9__gnu_cxx13new_allocatorI8vector2dED2Ev @55
    _ZN9__gnu_cxx13new_allocatorI8vector3dE10deallocateEPS1_y @56
    _ZN9__gnu_cxx13new_allocatorI8vector3dE7destroyIS1_EEvPT_ @57
    _ZN9__gnu_cxx13new_allocatorI8vector3dE8allocateEyPKv @58
    _ZN9__gnu_cxx13new_allocatorI8vector3dE9constructIS1_IRKS1_EEEvPT_DpOT0_ @59
    _ZN9__gnu_cxx13new_allocatorI8vector3dE9constructIS1_IS1_EEEvPT_DpOT0_ @60
    _ZN9__gnu_cxx13new_allocatorI8vector3dEC2ERKS2_ @61
    _ZN9__gnu_cxx13new_allocatorI8vector3dEC2Ev @62
    _ZN9__gnu_cxx13new_allocatorI8vector3dED2Ev @63
    _ZN9__gnu_cxx13new_allocatorISt13_Rb_tree_nodeISt4pairIKSs8MaterialEEE10deallocateEPS6_y @64
    _ZN9__gnu_cxx13new_allocatorISt13_Rb_tree_nodeISt4pairIKSs8MaterialEEE7destroyIS5_EEvPT_ @65
    _ZN9__gnu_cxx13new_allocatorISt13_Rb_tree_nodeISt4pairIKSs8MaterialEEE8allocateEyPKv @66
    _ZN9__gnu_cxx13new_allocatorISt13_Rb_tree_nodeISt4pairIKSs8MaterialEEE9constructIS5_IRKSt21piecewise_construct_tSt5tupleIIRS3_EESC_IIEEEEEvPT_DpOT0_ @67
    _ZN9__gnu_cxx13new_allocatorISt13_Rb_tree_nodeISt4pairIKSs8MaterialEEEC2Ev @68
    _ZN9__gnu_cxx13new_allocatorISt13_Rb_tree_nodeISt4pairIKSs8MaterialEEED2Ev @69
    _ZN9__gnu_cxx13new_allocatorISt6vectorI8TriangleSaIS2_EEE10deallocateEPS4_y @70
    _ZN9__gnu_cxx13new_allocatorISt6vectorI8TriangleSaIS2_EEE7destroyIS4_EEvPT_ @71
    _ZN9__gnu_cxx13new_allocatorISt6vectorI8TriangleSaIS2_EEE8allocateEyPKv @72
    _ZN9__gnu_cxx13new_allocatorISt6vectorI8TriangleSaIS2_EEE9constructIS4_IS4_EEEvPT_DpOT0_ @73
    _ZN9__gnu_cxx13new_allocatorIiE10deallocateEPiy @74
    _ZN9__gnu_cxx13new_allocatorIiE8allocateEyPKv @75
    _ZN9__gnu_cxx13new_allocatorIiEC2ERKS1_ @76
    _ZN9__gnu_cxx13new_allocatorIiEC2Ev @77
    _ZN9__gnu_cxx13new_allocatorIiED2Ev @78
    _ZN9__gnu_cxx16__aligned_bufferISt4pairIKSs8MaterialEE6_M_ptrEv @79
    _ZN9__gnu_cxx16__aligned_bufferISt4pairIKSs8MaterialEE7_M_addrEv @80
    _ZN9__gnu_cxx17__normal_iteratorIP8TriangleSt6vectorIS1_SaIS1_EEEC1ERKS2_ @81
    _ZN9__gnu_cxx17__normal_iteratorIP8TriangleSt6vectorIS1_SaIS1_EEEppEv @82
    _ZN9__gnu_cxxneIP8TriangleSt6vectorIS1_SaIS1_EEEEbRKNS_17__normal_iteratorIT_T0_EESB_ @83
    _ZN9objloader13loadAnimationERSt6vectorIS0_I8TriangleSaIS1_EESaIS3_EERKSsj @84
    _ZN9objloader13loadMaterialsERKSsRSt3mapISs8MaterialSt4lessISsESaISt4pairIS0_S3_EEE @85
    _ZN9objloader13smoothNormalsERSt6vectorI8TriangleSaIS1_EERS0_I8vector3dSaIS5_EEi @86
    _ZN9objloader4loadERKSsRSt6vectorI8TriangleSaIS3_EE @87
    _ZN9objloaderC1Ev @88
    _ZN9objloaderC2Ev @89
    _ZN9objloaderD1Ev @90
    _ZN9objloaderD2Ev @91
    _ZNK8vector3d10dotproductERKS_ @92
    _ZNK8vector3d3dotERKS_S1_ @93
    _ZNK8vector3d5crossERKS_S1_ @94
    _ZNK8vector3deqERKS_ @95
    _ZNK8vector3dixEi @96
    _ZNK8vector3dltERKS_ @97
    _ZNK8vector3dmiERKS_ @98
    _ZNK8vector3dmlERKf @99
    _ZNK8vector3dplERKS_ @100
    _ZNK8vector4d9normalizeEv @101
    _ZNK8vector4dmiERKS_ @102
    _ZNK8vector4dmlEf @103
    _ZNK8vector4dplERKS_ @104
    _ZNK9__gnu_cxx13new_allocatorI8TriangleE8max_sizeEv @105
    _ZNK9__gnu_cxx13new_allocatorI8vector2dE8max_sizeEv @106
    _ZNK9__gnu_cxx13new_allocatorI8vector3dE8max_sizeEv @107
    _ZNK9__gnu_cxx13new_allocatorISt13_Rb_tree_nodeISt4pairIKSs8MaterialEEE8max_sizeEv @108
    _ZNK9__gnu_cxx13new_allocatorISt6vectorI8TriangleSaIS2_EEE8max_sizeEv @109
    _ZNK9__gnu_cxx13new_allocatorIiE8max_sizeEv @110
    _ZNK9__gnu_cxx16__aligned_bufferISt4pairIKSs8MaterialEE6_M_ptrEv @111
    _ZNK9__gnu_cxx16__aligned_bufferISt4pairIKSs8MaterialEE7_M_addrEv @112
    _ZNK9__gnu_cxx17__normal_iteratorIP8TriangleSt6vectorIS1_SaIS1_EEE4baseEv @113
    _ZNK9__gnu_cxx17__normal_iteratorIP8TriangleSt6vectorIS1_SaIS1_EEEdeEv @114
    _ZNKSt10_Select1stISt4pairIKSs8MaterialEEclERKS3_ @115
    _ZNKSt12_Vector_baseI8TriangleSaIS0_EE19_M_get_Tp_allocatorEv @116
    _ZNKSt12_Vector_baseI8vector2dSaIS0_EE19_M_get_Tp_allocatorEv @117
    _ZNKSt12_Vector_baseI8vector3dSaIS0_EE19_M_get_Tp_allocatorEv @118
    _ZNKSt12_Vector_baseISt6vectorI8TriangleSaIS1_EESaIS3_EE19_M_get_Tp_allocatorEv @119
    _ZNKSt13_Rb_tree_nodeISt4pairIKSs8MaterialEE9_M_valptrEv @120
    _ZNKSt13move_iteratorIP8vector2dE4baseEv @121
    _ZNKSt13move_iteratorIP8vector2dEdeEv @122
    _ZNKSt13move_iteratorIP8vector3dE4baseEv @123
    _ZNKSt13move_iteratorIP8vector3dEdeEv @124
    _ZNKSt13move_iteratorIPSt6vectorI8TriangleSaIS1_EEE4baseEv @125
    _ZNKSt13move_iteratorIPSt6vectorI8TriangleSaIS1_EEEdeEv @126
    _ZNKSt17_Rb_tree_iteratorISt4pairIKSs8MaterialEEdeEv @127
    _ZNKSt17_Rb_tree_iteratorISt4pairIKSs8MaterialEEeqERKS4_ @128
    _ZNKSt23_Rb_tree_const_iteratorISt4pairIKSs8MaterialEE13_M_const_castEv @129
    _ZNKSt3mapISs8MaterialSt4lessISsESaISt4pairIKSsS0_EEE8key_compEv @130
    _ZNKSt4lessISsEclERKSsS2_ @131
    _ZNKSt6vectorI8TriangleSaIS0_EE12_M_check_lenEyPKc @132
    _ZNKSt6vectorI8TriangleSaIS0_EE4sizeEv @133
    _ZNKSt6vectorI8TriangleSaIS0_EE8max_sizeEv @134
    _ZNKSt6vectorI8vector2dSaIS0_EE12_M_check_lenEyPKc @135
    _ZNKSt6vectorI8vector2dSaIS0_EE4sizeEv @136
    _ZNKSt6vectorI8vector2dSaIS0_EE8max_sizeEv @137
    _ZNKSt6vectorI8vector3dSaIS0_EE12_M_check_lenEyPKc @138
    _ZNKSt6vectorI8vector3dSaIS0_EE4sizeEv @139
    _ZNKSt6vectorI8vector3dSaIS0_EE8max_sizeEv @140
    _ZNKSt6vectorIS_I8TriangleSaIS0_EESaIS2_EE12_M_check_lenEyPKc @141
    _ZNKSt6vectorIS_I8TriangleSaIS0_EESaIS2_EE4sizeEv @142
    _ZNKSt6vectorIS_I8TriangleSaIS0_EESaIS2_EE8max_sizeEv @143
    _ZNKSt8_Rb_treeISsSt4pairIKSs8MaterialESt10_Select1stIS3_ESt4lessISsESaIS3_EE4sizeEv @144
    _ZNKSt8_Rb_treeISsSt4pairIKSs8MaterialESt10_Select1stIS3_ESt4lessISsESaIS3_EE8key_compEv @145
    _ZNSaI8TriangleEC2ERKS0_ @146
    _ZNSaI8TriangleEC2Ev @147
    _ZNSaI8TriangleED2Ev @148
    _ZNSaI8vector2dEC2Ev @149
    _ZNSaI8vector2dED2Ev @150
    _ZNSaI8vector3dEC1Ev @151
    _ZNSaI8vector3dEC2ERKS0_ @152
    _ZNSaI8vector3dEC2Ev @153
    _ZNSaI8vector3dED1Ev @154
    _ZNSaI8vector3dED2Ev @155
    _ZNSaISt13_Rb_tree_nodeISt4pairIKSs8MaterialEEEC2Ev @156
    _ZNSaISt13_Rb_tree_nodeISt4pairIKSs8MaterialEEED2Ev @157
    _ZNSaIiEC1Ev @158
    _ZNSaIiEC2ERKS_ @159
    _ZNSaIiED1Ev @160
    _ZNSaIiED2Ev @161
    _ZNSt10_Head_baseILy0ERKSsLb0EE7_M_headERS2_ @162
    _ZNSt10_Head_baseILy0ERKSsLb0EEC2ES1_ @163
    _ZNSt10_Iter_baseIPiLb0EE7_S_baseES0_ @164
    _ZNSt11_Tuple_implILy0EIRKSsEE7_M_headERS2_ @165
    _ZNSt11_Tuple_implILy0EIRKSsEE7_M_tailERS2_ @166
    _ZNSt11_Tuple_implILy0EIRKSsEEC2EOS2_ @167
    _ZNSt11_Tuple_implILy0EIRKSsEEC2ES1_ @168
    _ZNSt11_Tuple_implILy1EIEEC2Ev @169
    _ZNSt12_Destroy_auxILb0EE9__destroyIP8TriangleEEvT_S4_ @170
    _ZNSt12_Destroy_auxILb0EE9__destroyIP8vector3dEEvT_S4_ @171
    _ZNSt12_Destroy_auxILb0EE9__destroyIPSt6vectorI8TriangleSaIS3_EEEEvT_S7_ @172
    _ZNSt12_Destroy_auxILb1EE9__destroyIP8vector2dEEvT_S4_ @173
    _ZNSt12_Destroy_auxILb1EE9__destroyIPiEEvT_S3_ @174
    _ZNSt12_Vector_baseI8TriangleSaIS0_EE11_M_allocateEy @175
    _ZNSt12_Vector_baseI8TriangleSaIS0_EE12_Vector_impl12_M_swap_dataERS3_ @176
    _ZNSt12_Vector_baseI8TriangleSaIS0_EE12_Vector_implC1EOS1_ @177
    _ZNSt12_Vector_baseI8TriangleSaIS0_EE12_Vector_implC1Ev @178
    _ZNSt12_Vector_baseI8TriangleSaIS0_EE12_Vector_implD1Ev @179
    _ZNSt12_Vector_baseI8TriangleSaIS0_EE13_M_deallocateEPS0_y @180
    _ZNSt12_Vector_baseI8TriangleSaIS0_EE19_M_get_Tp_allocatorEv @181
    _ZNSt12_Vector_baseI8TriangleSaIS0_EEC2EOS2_ @182
    _ZNSt12_Vector_baseI8TriangleSaIS0_EEC2Ev @183
    _ZNSt12_Vector_baseI8TriangleSaIS0_EED2Ev @184
    _ZNSt12_Vector_baseI8vector2dSaIS0_EE11_M_allocateEy @185
    _ZNSt12_Vector_baseI8vector2dSaIS0_EE12_Vector_implC1Ev @186
    _ZNSt12_Vector_baseI8vector2dSaIS0_EE12_Vector_implD1Ev @187
    _ZNSt12_Vector_baseI8vector2dSaIS0_EE13_M_deallocateEPS0_y @188
    _ZNSt12_Vector_baseI8vector2dSaIS0_EE19_M_get_Tp_allocatorEv @189
    _ZNSt12_Vector_baseI8vector2dSaIS0_EEC2Ev @190
    _ZNSt12_Vector_baseI8vector2dSaIS0_EED2Ev @191
    _ZNSt12_Vector_baseI8vector3dSaIS0_EE11_M_allocateEy @192
    _ZNSt12_Vector_baseI8vector3dSaIS0_EE12_Vector_implC1ERKS1_ @193
    _ZNSt12_Vector_baseI8vector3dSaIS0_EE12_Vector_implC1Ev @194
    _ZNSt12_Vector_baseI8vector3dSaIS0_EE12_Vector_implD1Ev @195
    _ZNSt12_Vector_baseI8vector3dSaIS0_EE13_M_deallocateEPS0_y @196
    _ZNSt12_Vector_baseI8vector3dSaIS0_EE17_M_create_storageEy @197
    _ZNSt12_Vector_baseI8vector3dSaIS0_EE19_M_get_Tp_allocatorEv @198
    _ZNSt12_Vector_baseI8vector3dSaIS0_EEC2Ev @199
    _ZNSt12_Vector_baseI8vector3dSaIS0_EEC2EyRKS1_ @200
    _ZNSt12_Vector_baseI8vector3dSaIS0_EED2Ev @201
    _ZNSt12_Vector_baseISt6vectorI8TriangleSaIS1_EESaIS3_EE11_M_allocateEy @202
    _ZNSt12_Vector_baseISt6vectorI8TriangleSaIS1_EESaIS3_EE13_M_deallocateEPS3_y @203
    _ZNSt12_Vector_baseISt6vectorI8TriangleSaIS1_EESaIS3_EE19_M_get_Tp_allocatorEv @204
    _ZNSt12_Vector_baseIiSaIiEE11_M_allocateEy @205
    _ZNSt12_Vector_baseIiSaIiEE12_Vector_implC1ERKS0_ @206
    _ZNSt12_Vector_baseIiSaIiEE12_Vector_implD1Ev @207
    _ZNSt12_Vector_baseIiSaIiEE13_M_deallocateEPiy @208
    _ZNSt12_Vector_baseIiSaIiEE17_M_create_storageEy @209
    _ZNSt12_Vector_baseIiSaIiEE19_M_get_Tp_allocatorEv @210
    _ZNSt12_Vector_baseIiSaIiEEC2EyRKS0_ @211
    _ZNSt12_Vector_baseIiSaIiEED2Ev @212
    _ZNSt13_Rb_tree_nodeISt4pairIKSs8MaterialEE9_M_valptrEv @213
    _ZNSt13move_iteratorIP8vector2dEC1ES1_ @214
    _ZNSt13move_iteratorIP8vector2dEppEv @215
    _ZNSt13move_iteratorIP8vector3dEC1ES1_ @216
    _ZNSt13move_iteratorIP8vector3dEppEv @217
    _ZNSt13move_iteratorIPSt6vectorI8TriangleSaIS1_EEEC1ES4_ @218
    _ZNSt13move_iteratorIPSt6vectorI8TriangleSaIS1_EEEppEv @219
    _ZNSt16allocator_traitsISaI8TriangleEE10_S_destroyIS0_EENSt9enable_ifIXsrSt6__and_IINS2_16__destroy_helperIT_E4typeEEE5valueEvE4typeERS1_PS7_ @220
    _ZNSt16allocator_traitsISaI8TriangleEE10deallocateERS1_PS0_y @221
    _ZNSt16allocator_traitsISaI8TriangleEE11_S_max_sizeIKS1_vEEyRT_i @222
    _ZNSt16allocator_traitsISaI8TriangleEE12_S_constructIS0_IS0_EEENSt9enable_ifIXsrSt6__and_IINS2_18__construct_helperIT_IDpT0_EE4typeEEE5valueEvE4typeERS1_PS7_DpOS8_ @223
    _ZNSt16allocator_traitsISaI8TriangleEE7destroyIS0_EEvRS1_PT_ @224
    _ZNSt16allocator_traitsISaI8TriangleEE8allocateERS1_y @225
    _ZNSt16allocator_traitsISaI8TriangleEE8max_sizeERKS1_ @226
    _ZNSt16allocator_traitsISaI8TriangleEE9constructIS0_IS0_EEEDTcl12_S_constructfp_fp0_spcl7forwardIT0_Efp1_EEERS1_PT_DpOS4_ @227
    _ZNSt16allocator_traitsISaI8vector2dEE10_S_destroyIS0_EENSt9enable_ifIXsrSt6__and_IINS2_16__destroy_helperIT_E4typeEEE5valueEvE4typeERS1_PS7_ @228
    _ZNSt16allocator_traitsISaI8vector2dEE10deallocateERS1_PS0_y @229
    _ZNSt16allocator_traitsISaI8vector2dEE11_S_max_sizeIKS1_vEEyRT_i @230
    _ZNSt16allocator_traitsISaI8vector2dEE12_S_constructIS0_IRKS0_EEENSt9enable_ifIXsrSt6__and_IINS2_18__construct_helperIT_IDpT0_EE4typeEEE5valueEvE4typeERS1_PS9_DpOSA_ @231
    _ZNSt16allocator_traitsISaI8vector2dEE7destroyIS0_EEvRS1_PT_ @232
    _ZNSt16allocator_traitsISaI8vector2dEE8allocateERS1_y @233
    _ZNSt16allocator_traitsISaI8vector2dEE8max_sizeERKS1_ @234
    _ZNSt16allocator_traitsISaI8vector2dEE9constructIS0_IRKS0_EEEDTcl12_S_constructfp_fp0_spcl7forwardIT0_Efp1_EEERS1_PT_DpOS6_ @235
    _ZNSt16allocator_traitsISaI8vector3dEE10_S_destroyIS0_EENSt9enable_ifIXsrSt6__and_IINS2_16__destroy_helperIT_E4typeEEE5valueEvE4typeERS1_PS7_ @236
    _ZNSt16allocator_traitsISaI8vector3dEE10deallocateERS1_PS0_y @237
    _ZNSt16allocator_traitsISaI8vector3dEE11_S_max_sizeIKS1_vEEyRT_i @238
    _ZNSt16allocator_traitsISaI8vector3dEE12_S_constructIS0_IRKS0_EEENSt9enable_ifIXsrSt6__and_IINS2_18__construct_helperIT_IDpT0_EE4typeEEE5valueEvE4typeERS1_PS9_DpOSA_ @239
    _ZNSt16allocator_traitsISaI8vector3dEE12_S_constructIS0_IS0_EEENSt9enable_ifIXsrSt6__and_IINS2_18__construct_helperIT_IDpT0_EE4typeEEE5valueEvE4typeERS1_PS7_DpOS8_ @240
    _ZNSt16allocator_traitsISaI8vector3dEE7destroyIS0_EEvRS1_PT_ @241
    _ZNSt16allocator_traitsISaI8vector3dEE8allocateERS1_y @242
    _ZNSt16allocator_traitsISaI8vector3dEE8max_sizeERKS1_ @243
    _ZNSt16allocator_traitsISaI8vector3dEE9constructIS0_IRKS0_EEEDTcl12_S_constructfp_fp0_spcl7forwardIT0_Efp1_EEERS1_PT_DpOS6_ @244
    _ZNSt16allocator_traitsISaI8vector3dEE9constructIS0_IS0_EEEDTcl12_S_constructfp_fp0_spcl7forwardIT0_Efp1_EEERS1_PT_DpOS4_ @245
    _ZNSt16allocator_traitsISaISt13_Rb_tree_nodeISt4pairIKSs8MaterialEEEE10_S_destroyIS4_EENSt9enable_ifIXsrSt6__and_IINS7_16__destroy_helperIT_E4typeEEE5valueEvE4typeERS6_PSC_ @246
    _ZNSt16allocator_traitsISaISt13_Rb_tree_nodeISt4pairIKSs8MaterialEEEE10deallocateERS6_PS5_y @247
    _ZNSt16allocator_traitsISaISt13_Rb_tree_nodeISt4pairIKSs8MaterialEEEE12_S_constructIS4_IRKSt21piecewise_construct_tSt5tupleIIRS2_EESC_IIEEEEENSt9enable_ifIXsrSt6__and_IINS7_18__construct_helperIT_IDpT0_EE4typeEEE5valueEvE4typeERS6_PSJ_DpOSK_ @248
    _ZNSt16allocator_traitsISaISt13_Rb_tree_nodeISt4pairIKSs8MaterialEEEE7destroyIS4_EEvRS6_PT_ @249
    _ZNSt16allocator_traitsISaISt13_Rb_tree_nodeISt4pairIKSs8MaterialEEEE8allocateERS6_y @250
    _ZNSt16allocator_traitsISaISt13_Rb_tree_nodeISt4pairIKSs8MaterialEEEE9constructIS4_IRKSt21piecewise_construct_tSt5tupleIIRS2_EESC_IIEEEEEDTcl12_S_constructfp_fp0_spcl7forwardIT0_Efp1_EEERS6_PT_DpOSG_ @251
    _ZNSt16allocator_traitsISaISt6vectorI8TriangleSaIS1_EEEE10_S_destroyIS3_EENSt9enable_ifIXsrSt6__and_IINS5_16__destroy_helperIT_E4typeEEE5valueEvE4typeERS4_PSA_ @252
    _ZNSt16allocator_traitsISaISt6vectorI8TriangleSaIS1_EEEE10deallocateERS4_PS3_y @253
    _ZNSt16allocator_traitsISaISt6vectorI8TriangleSaIS1_EEEE11_S_max_sizeIKS4_vEEyRT_i @254
    _ZNSt16allocator_traitsISaISt6vectorI8TriangleSaIS1_EEEE12_S_constructIS3_IS3_EEENSt9enable_ifIXsrSt6__and_IINS5_18__construct_helperIT_IDpT0_EE4typeEEE5valueEvE4typeERS4_PSA_DpOSB_ @255
    _ZNSt16allocator_traitsISaISt6vectorI8TriangleSaIS1_EEEE7destroyIS3_EEvRS4_PT_ @256
    _ZNSt16allocator_traitsISaISt6vectorI8TriangleSaIS1_EEEE8allocateERS4_y @257
    _ZNSt16allocator_traitsISaISt6vectorI8TriangleSaIS1_EEEE8max_sizeERKS4_ @258
    _ZNSt16allocator_traitsISaISt6vectorI8TriangleSaIS1_EEEE9constructIS3_IS3_EEEDTcl12_S_constructfp_fp0_spcl7forwardIT0_Efp1_EEERS4_PT_DpOS7_ @259
    _ZNSt16allocator_traitsISaIiEE10deallocateERS0_Piy @260
    _ZNSt16allocator_traitsISaIiEE8allocateERS0_y @261
    _ZNSt17_Rb_tree_iteratorISt4pairIKSs8MaterialEEC1EPSt13_Rb_tree_nodeIS3_E @262
    _ZNSt17_Rb_tree_iteratorISt4pairIKSs8MaterialEEmmEv @263
    _ZNSt17_Rb_tree_iteratorISt4pairIKSs8MaterialEEppEv @264
    _ZNSt20__uninitialized_copyILb0EE13__uninit_copyIP8TriangleS3_EET0_T_S5_S4_ @265
    _ZNSt20__uninitialized_copyILb0EE13__uninit_copyISt13move_iteratorIP8vector2dES4_EET0_T_S7_S6_ @266
    _ZNSt20__uninitialized_copyILb0EE13__uninit_copyISt13move_iteratorIP8vector3dES4_EET0_T_S7_S6_ @267
    _ZNSt20__uninitialized_copyILb0EE13__uninit_copyISt13move_iteratorIPSt6vectorI8TriangleSaIS4_EEES7_EET0_T_SA_S9_ @268
    _ZNSt22__uninitialized_fill_nILb0EE15__uninit_fill_nIP8vector3dyS2_EEvT_T0_RKT1_ @269
    _ZNSt22__uninitialized_fill_nILb1EE15__uninit_fill_nIPiyiEEvT_T0_RKT1_ @270
    _ZNSt23_Rb_tree_const_iteratorISt4pairIKSs8MaterialEEC1ERKSt17_Rb_tree_iteratorIS3_E @271
    _ZNSt3mapISs8MaterialSt4lessISsESaISt4pairIKSsS0_EEE11lower_boundERS4_ @272
    _ZNSt3mapISs8MaterialSt4lessISsESaISt4pairIKSsS0_EEE3endEv @273
    _ZNSt3mapISs8MaterialSt4lessISsESaISt4pairIKSsS0_EEEC1Ev @274
    _ZNSt3mapISs8MaterialSt4lessISsESaISt4pairIKSsS0_EEED1Ev @275
    _ZNSt3mapISs8MaterialSt4lessISsESaISt4pairIKSsS0_EEEixERS4_ @276
    _ZNSt4pairIKSs8MaterialEC1IIRS0_EIEEESt21piecewise_construct_tSt5tupleIIDpT_EES6_IIDpT0_EE @277
    _ZNSt4pairIKSs8MaterialEC1IIRS0_EILy0EEIEIEEERSt5tupleIIDpT_EERS5_IIDpT1_EESt12_Index_tupleIIXspT0_EEESE_IIXspT2_EEE @278
    _ZNSt4pairIKSs8MaterialED1Ev @279
    _ZNSt4pairIPSt18_Rb_tree_node_baseS1_EC1IRPSt13_Rb_tree_nodeIS_IKSs8MaterialEESA_vEEOT_OT0_ @280
    _ZNSt4pairIPSt18_Rb_tree_node_baseS1_EC1IRS1_S4_vEEOT_OT0_ @281
    _ZNSt4pairIPSt18_Rb_tree_node_baseS1_EC1IRS1_vEEOT_RKS1_ @282
    _ZNSt4pairIPSt18_Rb_tree_node_baseS1_EC1IRS1_vEERKS1_OT_ @283
    _ZNSt5tupleIIRKSsEEC1EOS2_ @284
    _ZNSt5tupleIIRKSsEEC1ES1_ @285
    _ZNSt6vectorI8TriangleSaIS0_EE12emplace_backIIS0_EEEvDpOT_ @286
    _ZNSt6vectorI8TriangleSaIS0_EE19_M_emplace_back_auxIIS0_EEEvDpOT_ @287
    _ZNSt6vectorI8TriangleSaIS0_EE3endEv @288
    _ZNSt6vectorI8TriangleSaIS0_EE5beginEv @289
    _ZNSt6vectorI8TriangleSaIS0_EE9push_backEOS0_ @290
    _ZNSt6vectorI8TriangleSaIS0_EEC1EOS2_ @291
    _ZNSt6vectorI8TriangleSaIS0_EEC1Ev @292
    _ZNSt6vectorI8TriangleSaIS0_EED1Ev @293
    _ZNSt6vectorI8vector2dSaIS0_EE19_M_emplace_back_auxIIRKS0_EEEvDpOT_ @294
    _ZNSt6vectorI8vector2dSaIS0_EE9push_backERKS0_ @295
    _ZNSt6vectorI8vector2dSaIS0_EEC1Ev @296
    _ZNSt6vectorI8vector2dSaIS0_EED1Ev @297
    _ZNSt6vectorI8vector2dSaIS0_EEixEy @298
    _ZNSt6vectorI8vector3dSaIS0_EE12emplace_backIIS0_EEEvDpOT_ @299
    _ZNSt6vectorI8vector3dSaIS0_EE18_M_fill_initializeEyRKS0_ @300
    _ZNSt6vectorI8vector3dSaIS0_EE19_M_emplace_back_auxIIRKS0_EEEvDpOT_ @301
    _ZNSt6vectorI8vector3dSaIS0_EE19_M_emplace_back_auxIIS0_EEEvDpOT_ @302
    _ZNSt6vectorI8vector3dSaIS0_EE9push_backEOS0_ @303
    _ZNSt6vectorI8vector3dSaIS0_EE9push_backERKS0_ @304
    _ZNSt6vectorI8vector3dSaIS0_EEC1Ev @305
    _ZNSt6vectorI8vector3dSaIS0_EEC1EyRKS0_RKS1_ @306
    _ZNSt6vectorI8vector3dSaIS0_EED1Ev @307
    _ZNSt6vectorI8vector3dSaIS0_EEixEy @308
    _ZNSt6vectorIS_I8TriangleSaIS0_EESaIS2_EE12emplace_backIIS2_EEEvDpOT_ @309
    _ZNSt6vectorIS_I8TriangleSaIS0_EESaIS2_EE19_M_emplace_back_auxIIS2_EEEvDpOT_ @310
    _ZNSt6vectorIS_I8TriangleSaIS0_EESaIS2_EE9push_backEOS2_ @311
    _ZNSt6vectorIiSaIiEE18_M_fill_initializeEyRKi @312
    _ZNSt6vectorIiSaIiEEC1EyRKiRKS0_ @313
    _ZNSt6vectorIiSaIiEED1Ev @314
    _ZNSt6vectorIiSaIiEEixEy @315
    _ZNSt8_Rb_treeISsSt4pairIKSs8MaterialESt10_Select1stIS3_ESt4lessISsESaIS3_EE11_M_get_nodeEv @316
    _ZNSt8_Rb_treeISsSt4pairIKSs8MaterialESt10_Select1stIS3_ESt4lessISsESaIS3_EE11_M_leftmostEv @317
    _ZNSt8_Rb_treeISsSt4pairIKSs8MaterialESt10_Select1stIS3_ESt4lessISsESaIS3_EE11_M_put_nodeEPSt13_Rb_tree_nodeIS3_E @318
    _ZNSt8_Rb_treeISsSt4pairIKSs8MaterialESt10_Select1stIS3_ESt4lessISsESaIS3_EE11lower_boundERS1_ @319
    _ZNSt8_Rb_treeISsSt4pairIKSs8MaterialESt10_Select1stIS3_ESt4lessISsESaIS3_EE12_M_rightmostEv @320
    _ZNSt8_Rb_treeISsSt4pairIKSs8MaterialESt10_Select1stIS3_ESt4lessISsESaIS3_EE13_Rb_tree_implIS7_Lb1EE13_M_initializeEv @321
    _ZNSt8_Rb_treeISsSt4pairIKSs8MaterialESt10_Select1stIS3_ESt4lessISsESaIS3_EE13_Rb_tree_implIS7_Lb1EEC1Ev @322
    _ZNSt8_Rb_treeISsSt4pairIKSs8MaterialESt10_Select1stIS3_ESt4lessISsESaIS3_EE13_Rb_tree_implIS7_Lb1EED1Ev @323
    _ZNSt8_Rb_treeISsSt4pairIKSs8MaterialESt10_Select1stIS3_ESt4lessISsESaIS3_EE14_M_create_nodeIIRKSt21piecewise_construct_tSt5tupleIIRS1_EESE_IIEEEEEPSt13_Rb_tree_nodeIS3_EDpOT_ @324
    _ZNSt8_Rb_treeISsSt4pairIKSs8MaterialESt10_Select1stIS3_ESt4lessISsESaIS3_EE14_M_insert_nodeEPSt18_Rb_tree_node_baseSB_PSt13_Rb_tree_nodeIS3_E @325
    _ZNSt8_Rb_treeISsSt4pairIKSs8MaterialESt10_Select1stIS3_ESt4lessISsESaIS3_EE14_M_lower_boundEPSt13_Rb_tree_nodeIS3_ESC_RS1_ @326
    _ZNSt8_Rb_treeISsSt4pairIKSs8MaterialESt10_Select1stIS3_ESt4lessISsESaIS3_EE15_M_destroy_nodeEPSt13_Rb_tree_nodeIS3_E @327
    _ZNSt8_Rb_treeISsSt4pairIKSs8MaterialESt10_Select1stIS3_ESt4lessISsESaIS3_EE21_M_get_Node_allocatorEv @328
    _ZNSt8_Rb_treeISsSt4pairIKSs8MaterialESt10_Select1stIS3_ESt4lessISsESaIS3_EE22_M_emplace_hint_uniqueIIRKSt21piecewise_construct_tSt5tupleIIRS1_EESE_IIEEEEESt17_Rb_tree_iteratorIS3_ESt23_Rb_tree_const_iteratorIS3_EDpOT_ @329
    _ZNSt8_Rb_treeISsSt4pairIKSs8MaterialESt10_Select1stIS3_ESt4lessISsESaIS3_EE24_M_get_insert_unique_posERS1_ @330
    _ZNSt8_Rb_treeISsSt4pairIKSs8MaterialESt10_Select1stIS3_ESt4lessISsESaIS3_EE29_M_get_insert_hint_unique_posESt23_Rb_tree_const_iteratorIS3_ERS1_ @331
    _ZNSt8_Rb_treeISsSt4pairIKSs8MaterialESt10_Select1stIS3_ESt4lessISsESaIS3_EE3endEv @332
    _ZNSt8_Rb_treeISsSt4pairIKSs8MaterialESt10_Select1stIS3_ESt4lessISsESaIS3_EE5beginEv @333
    _ZNSt8_Rb_treeISsSt4pairIKSs8MaterialESt10_Select1stIS3_ESt4lessISsESaIS3_EE6_M_endEv @334
    _ZNSt8_Rb_treeISsSt4pairIKSs8MaterialESt10_Select1stIS3_ESt4lessISsESaIS3_EE6_S_keyEPKSt13_Rb_tree_nodeIS3_E @335
    _ZNSt8_Rb_treeISsSt4pairIKSs8MaterialESt10_Select1stIS3_ESt4lessISsESaIS3_EE6_S_keyEPKSt18_Rb_tree_node_base @336
    _ZNSt8_Rb_treeISsSt4pairIKSs8MaterialESt10_Select1stIS3_ESt4lessISsESaIS3_EE7_S_leftEPSt18_Rb_tree_node_base @337
    _ZNSt8_Rb_treeISsSt4pairIKSs8MaterialESt10_Select1stIS3_ESt4lessISsESaIS3_EE8_M_beginEv @338
    _ZNSt8_Rb_treeISsSt4pairIKSs8MaterialESt10_Select1stIS3_ESt4lessISsESaIS3_EE8_M_eraseEPSt13_Rb_tree_nodeIS3_E @339
    _ZNSt8_Rb_treeISsSt4pairIKSs8MaterialESt10_Select1stIS3_ESt4lessISsESaIS3_EE8_S_rightEPSt18_Rb_tree_node_base @340
    _ZNSt8_Rb_treeISsSt4pairIKSs8MaterialESt10_Select1stIS3_ESt4lessISsESaIS3_EE8_S_valueEPKSt13_Rb_tree_nodeIS3_E @341
    _ZNSt8_Rb_treeISsSt4pairIKSs8MaterialESt10_Select1stIS3_ESt4lessISsESaIS3_EE8_S_valueEPKSt18_Rb_tree_node_base @342
    _ZNSt8_Rb_treeISsSt4pairIKSs8MaterialESt10_Select1stIS3_ESt4lessISsESaIS3_EEC1Ev @343
    _ZNSt8_Rb_treeISsSt4pairIKSs8MaterialESt10_Select1stIS3_ESt4lessISsESaIS3_EED1Ev @344
    _ZSt10_ConstructI8TriangleIRS0_EEvPT_DpOT0_ @345
    _ZSt10_ConstructI8vector2dIS0_EEvPT_DpOT0_ @346
    _ZSt10_ConstructI8vector3dIRKS0_EEvPT_DpOT0_ @347
    _ZSt10_ConstructI8vector3dIS0_EEvPT_DpOT0_ @348
    _ZSt10_ConstructISt6vectorI8TriangleSaIS1_EEIS3_EEvPT_DpOT0_ @349
    _ZSt10__fill_n_aIPiyiEN9__gnu_cxx11__enable_ifIXsrSt11__is_scalarIT1_E7__valueET_E6__typeES6_T0_RKS4_ @350
    _ZSt11__addressofI8TriangleEPT_RS1_ @351
    _ZSt11__addressofI8vector2dEPT_RS1_ @352
    _ZSt11__addressofI8vector3dEPT_RS1_ @353
    _ZSt11__addressofISt6vectorI8TriangleSaIS1_EEEPT_RS4_ @354
    _ZSt12__get_helperILy0ERKSsIEENSt9__add_refIT0_E4typeERSt11_Tuple_implIXT_EIS3_DpT1_EE @355
    _ZSt12__niter_baseIPiENSt11_Niter_baseIT_E13iterator_typeES2_ @356
    _ZSt18uninitialized_copyIP8TriangleS1_ET0_T_S3_S2_ @357
    _ZSt18uninitialized_copyISt13move_iteratorIP8vector2dES2_ET0_T_S5_S4_ @358
    _ZSt18uninitialized_copyISt13move_iteratorIP8vector3dES2_ET0_T_S5_S4_ @359
    _ZSt18uninitialized_copyISt13move_iteratorIPSt6vectorI8TriangleSaIS2_EEES5_ET0_T_S8_S7_ @360
    _ZSt20uninitialized_fill_nIP8vector3dyS0_EvT_T0_RKT1_ @361
    _ZSt20uninitialized_fill_nIPiyiEvT_T0_RKT1_ @362
    _ZSt22__uninitialized_copy_aIP8TriangleS1_S0_ET0_T_S3_S2_RSaIT1_E @363
    _ZSt22__uninitialized_copy_aISt13move_iteratorIP8vector2dES2_S1_ET0_T_S5_S4_RSaIT1_E @364
    _ZSt22__uninitialized_copy_aISt13move_iteratorIP8vector3dES2_S1_ET0_T_S5_S4_RSaIT1_E @365
    _ZSt22__uninitialized_copy_aISt13move_iteratorIPSt6vectorI8TriangleSaIS2_EEES5_S4_ET0_T_S8_S7_RSaIT1_E @366
    _ZSt24__uninitialized_fill_n_aIP8vector3dyS0_S0_EvT_T0_RKT1_RSaIT2_E @367
    _ZSt24__uninitialized_fill_n_aIPiyiiEvT_T0_RKT1_RSaIT2_E @368
    _ZSt32__make_move_if_noexcept_iteratorIP8TriangleS1_ET0_T_ @369
    _ZSt32__make_move_if_noexcept_iteratorIP8vector2dSt13move_iteratorIS1_EET0_T_ @370
    _ZSt32__make_move_if_noexcept_iteratorIP8vector3dSt13move_iteratorIS1_EET0_T_ @371
    _ZSt32__make_move_if_noexcept_iteratorIPSt6vectorI8TriangleSaIS1_EESt13move_iteratorIS4_EET0_T_ @372
    _ZSt34__uninitialized_move_if_noexcept_aIP8TriangleS1_SaIS0_EET0_T_S4_S3_RT1_ @373
    _ZSt34__uninitialized_move_if_noexcept_aIP8vector2dS1_SaIS0_EET0_T_S4_S3_RT1_ @374
    _ZSt34__uninitialized_move_if_noexcept_aIP8vector3dS1_SaIS0_EET0_T_S4_S3_RT1_ @375
    _ZSt34__uninitialized_move_if_noexcept_aIPSt6vectorI8TriangleSaIS1_EES4_SaIS3_EET0_T_S7_S6_RT1_ @376
    _ZSt3getILy0EIRKSsEENSt9__add_refINSt13tuple_elementIXT_ESt5tupleIIDpT0_EEE4typeEE4typeERS7_ @377
    _ZSt3maxIyERKT_S2_S2_ @378
    _ZSt4moveIR8TriangleEONSt16remove_referenceIT_E4typeEOS3_ @379
    _ZSt4moveIR8vector2dEONSt16remove_referenceIT_E4typeEOS3_ @380
    _ZSt4moveIR8vector3dEONSt16remove_referenceIT_E4typeEOS3_ @381
    _ZSt4moveIRP8TriangleEONSt16remove_referenceIT_E4typeEOS4_ @382
    _ZSt4moveIRSaI8TriangleEEONSt16remove_referenceIT_E4typeEOS4_ @383
    _ZSt4moveIRSsEONSt16remove_referenceIT_E4typeEOS2_ @384
    _ZSt4moveIRSt11_Tuple_implILy1EIEEEONSt16remove_referenceIT_E4typeEOS4_ @385
    _ZSt4moveIRSt6vectorI8TriangleSaIS1_EEEONSt16remove_referenceIT_E4typeEOS6_ @386
    _ZSt4sqrtf @387
    _ZSt4swapIP8TriangleEvRT_S3_ @388
    _ZSt6fill_nIPiyiET_S1_T0_RKT1_ @389
    _ZSt7forwardI8TriangleEOT_RNSt16remove_referenceIS1_E4typeE @390
    _ZSt7forwardI8vector2dEOT_RNSt16remove_referenceIS1_E4typeE @391
    _ZSt7forwardI8vector3dEOT_RNSt16remove_referenceIS1_E4typeE @392
    _ZSt7forwardIR8TriangleEOT_RNSt16remove_referenceIS2_E4typeE @393
    _ZSt7forwardIRK8vector2dEOT_RNSt16remove_referenceIS3_E4typeE @394
    _ZSt7forwardIRK8vector3dEOT_RNSt16remove_referenceIS3_E4typeE @395
    _ZSt7forwardIRKSsEOT_RNSt16remove_referenceIS2_E4typeE @396
    _ZSt7forwardIRKSt21piecewise_construct_tEOT_RNSt16remove_referenceIS3_E4typeE @397
    _ZSt7forwardIRPSt13_Rb_tree_nodeISt4pairIKSs8MaterialEEEOT_RNSt16remove_referenceIS8_E4typeE @398
    _ZSt7forwardIRPSt18_Rb_tree_node_baseEOT_RNSt16remove_referenceIS3_E4typeE @399
    _ZSt7forwardISt5tupleIIEEEOT_RNSt16remove_referenceIS2_E4typeE @400
    _ZSt7forwardISt5tupleIIRKSsEEEOT_RNSt16remove_referenceIS4_E4typeE @401
    _ZSt7forwardISt6vectorI8TriangleSaIS1_EEEOT_RNSt16remove_referenceIS4_E4typeE @402
    _ZSt8_DestroyI8TriangleEvPT_ @403
    _ZSt8_DestroyI8vector3dEvPT_ @404
    _ZSt8_DestroyIP8TriangleEvT_S2_ @405
    _ZSt8_DestroyIP8TriangleS0_EvT_S2_RSaIT0_E @406
    _ZSt8_DestroyIP8vector2dEvT_S2_ @407
    _ZSt8_DestroyIP8vector2dS0_EvT_S2_RSaIT0_E @408
    _ZSt8_DestroyIP8vector3dEvT_S2_ @409
    _ZSt8_DestroyIP8vector3dS0_EvT_S2_RSaIT0_E @410
    _ZSt8_DestroyIPSt6vectorI8TriangleSaIS1_EEEvT_S5_ @411
    _ZSt8_DestroyIPSt6vectorI8TriangleSaIS1_EES3_EvT_S5_RSaIT0_E @412
    _ZSt8_DestroyIPiEvT_S1_ @413
    _ZSt8_DestroyIPiiEvT_S1_RSaIT0_E @414
    _ZSt8_DestroyISt6vectorI8TriangleSaIS1_EEEvPT_ @415
    _ZSteqIP8vector2dEbRKSt13move_iteratorIT_ES6_ @416
    _ZSteqIP8vector3dEbRKSt13move_iteratorIT_ES6_ @417
    _ZSteqIPSt6vectorI8TriangleSaIS1_EEEbRKSt13move_iteratorIT_ES9_ @418
    _ZSteqIcSt11char_traitsIcESaIcEEbRKSbIT_T0_T1_EPKS3_ @419
    _ZStltIcSt11char_traitsIcESaIcEEbRKSbIT_T0_T1_ES8_ @420
    _ZStneIP8vector2dEbRKSt13move_iteratorIT_ES6_ @421
    _ZStneIP8vector3dEbRKSt13move_iteratorIT_ES6_ @422
    _ZStneIPSt6vectorI8TriangleSaIS1_EEEbRKSt13move_iteratorIT_ES9_ @423
    _ZStplIcSt11char_traitsIcESaIcEESbIT_T0_T1_EOS6_PKS3_ @424
    _ZStplIcSt11char_traitsIcESaIcEESbIT_T0_T1_ERKS6_PKS3_ @425
    _ZStplIcSt11char_traitsIcESaIcEESbIT_T0_T1_ERKS6_S8_ @426
    _ZTISt11logic_error @427 DATA
    _ZTISt12out_of_range @428 DATA
    _ZTISt9exception @429 DATA
    _ZTSSt11logic_error @430 DATA
    _ZTSSt12out_of_range @431 DATA
    _ZTSSt9exception @432 DATA
    _ZdlPvS_ @433
    _ZlsRSo8vector3d @434
    _ZnwyPv @435
