EXPORTS
    _Z5clampIiET_S0_S0_S0_ @1
    _ZN5pixel11clearBufferEv @2
    _ZN5pixel12fillTriangleEPjPf9SDL_PointS2_S2_iihhhfff @3
    _ZN5pixel18computeBarycentricEii9SDL_PointS0_S0_RfS1_S1_ @4
    _ZN5pixel20drawTexturedTriangleEPjPfRK8vector3dS4_S4_RK8vector2dS7_S7_P11SDL_Surfaceiifff @5
    _ZN5pixel7projectERK8vector3dii @6
    _ZN5pixel8drawLineEPj7Point2DS1_hhhii @7
    _ZN5pixelC1Ev @8
    _ZN5pixelC2Ev @9
    _ZN5pixelD1Ev @10
    _ZN5pixelD2Ev @11
    _ZN7Point2DC1Eii @12
    _ZN9__gnu_cxx13new_allocatorISt6vectorIfSaIfEEE10deallocateEPS3_y @13
    _ZN9__gnu_cxx13new_allocatorISt6vectorIfSaIfEEE8allocateEyPKv @14
    _ZN9__gnu_cxx13new_allocatorISt6vectorIfSaIfEEEC2Ev @15
    _ZN9__gnu_cxx13new_allocatorISt6vectorIfSaIfEEED2Ev @16
    _ZN9__gnu_cxx13new_allocatorIfE10deallocateEPfy @17
    _ZN9__gnu_cxx13new_allocatorIfE8allocateEyPKv @18
    _ZN9__gnu_cxx13new_allocatorIfEC2ERKS1_ @19
    _ZN9__gnu_cxx13new_allocatorIfEC2Ev @20
    _ZN9__gnu_cxx13new_allocatorIfED2Ev @21
    _ZN9__gnu_cxx14__alloc_traitsISaIfEE15_S_always_equalEv @22
    _ZN9__gnu_cxx14__alloc_traitsISaIfEE17_S_select_on_copyERKS1_ @23
    _ZN9__gnu_cxx14__alloc_traitsISaIfEE27_S_propagate_on_copy_assignEv @24
    _ZN9__gnu_cxx17__normal_iteratorIPKSt6vectorIfSaIfEES1_IS3_SaIS3_EEEC1ERKS5_ @25
    _ZN9__gnu_cxx17__normal_iteratorIPKSt6vectorIfSaIfEES1_IS3_SaIS3_EEEC1IPS3_EERKNS0_IT_NS_11__enable_ifIXsrSt10__are_sameISB_SA_E7__valueES7_E6__typeEEE @26
    _ZN9__gnu_cxx17__normal_iteratorIPKfSt6vectorIfSaIfEEEC1ERKS2_ @27
    _ZN9__gnu_cxx17__normal_iteratorIPKfSt6vectorIfSaIfEEEppEv @28
    _ZN9__gnu_cxx17__normal_iteratorIPSt6vectorIfSaIfEES1_IS3_SaIS3_EEEC1ERKS4_ @29
    _ZN9__gnu_cxx17__normal_iteratorIPSt6vectorIfSaIfEES1_IS3_SaIS3_EEEppEv @30
    _ZN9__gnu_cxx17__normal_iteratorIPfSt6vectorIfSaIfEEEC1ERKS1_ @31
    _ZN9__gnu_cxx5__ops16__iter_less_iterEv @32
    _ZN9__gnu_cxxmiIPKSt6vectorIfSaIfEES1_IS3_SaIS3_EEEENS_17__normal_iteratorIT_T0_E15difference_typeERKSB_SE_ @33
    _ZN9__gnu_cxxmiIPSt6vectorIfSaIfEES1_IS3_SaIS3_EEEENS_17__normal_iteratorIT_T0_E15difference_typeERKSA_SD_ @34
    _ZN9__gnu_cxxneIPKfSt6vectorIfSaIfEEEEbRKNS_17__normal_iteratorIT_T0_EESB_ @35
    _ZN9__gnu_cxxneIPSt6vectorIfSaIfEES1_IS3_SaIS3_EEEEbRKNS_17__normal_iteratorIT_T0_EESC_ @36
    _ZNK9__gnu_cxx13new_allocatorISt6vectorIfSaIfEEE8max_sizeEv @37
    _ZNK9__gnu_cxx13new_allocatorIfE8max_sizeEv @38
    _ZNK9__gnu_cxx17__normal_iteratorIPKSt6vectorIfSaIfEES1_IS3_SaIS3_EEE4baseEv @39
    _ZNK9__gnu_cxx17__normal_iteratorIPKfSt6vectorIfSaIfEEE4baseEv @40
    _ZNK9__gnu_cxx17__normal_iteratorIPKfSt6vectorIfSaIfEEEdeEv @41
    _ZNK9__gnu_cxx17__normal_iteratorIPSt6vectorIfSaIfEES1_IS3_SaIS3_EEE4baseEv @42
    _ZNK9__gnu_cxx17__normal_iteratorIPSt6vectorIfSaIfEES1_IS3_SaIS3_EEEdeEv @43
    _ZNK9__gnu_cxx17__normal_iteratorIPSt6vectorIfSaIfEES1_IS3_SaIS3_EEEplEx @44
    _ZNK9__gnu_cxx17__normal_iteratorIPfSt6vectorIfSaIfEEE4baseEv @45
    _ZNK9__gnu_cxx5__ops15_Iter_less_iterclIPKiS4_EEbT_T0_ @46
    _ZNKSt12_Vector_baseISt6vectorIfSaIfEESaIS2_EE19_M_get_Tp_allocatorEv @47
    _ZNKSt12_Vector_baseIfSaIfEE13get_allocatorEv @48
    _ZNKSt12_Vector_baseIfSaIfEE19_M_get_Tp_allocatorEv @49
    _ZNKSt13move_iteratorIPSt6vectorIfSaIfEEE4baseEv @50
    _ZNKSt13move_iteratorIPSt6vectorIfSaIfEEEdeEv @51
    _ZNKSt16initializer_listIiE3endEv @52
    _ZNKSt16initializer_listIiE4sizeEv @53
    _ZNKSt16initializer_listIiE5beginEv @54
    _ZNKSt6vectorIS_IfSaIfEESaIS1_EE12_M_check_lenEyPKc @55
    _ZNKSt6vectorIS_IfSaIfEESaIS1_EE4sizeEv @56
    _ZNKSt6vectorIS_IfSaIfEESaIS1_EE6cbeginEv @57
    _ZNKSt6vectorIS_IfSaIfEESaIS1_EE8max_sizeEv @58
    _ZNKSt6vectorIfSaIfEE3endEv @59
    _ZNKSt6vectorIfSaIfEE4sizeEv @60
    _ZNKSt6vectorIfSaIfEE5beginEv @61
    _ZNKSt6vectorIfSaIfEE8capacityEv @62
    _ZNSaISt6vectorIfSaIfEEEC2Ev @63
    _ZNSaISt6vectorIfSaIfEEED2Ev @64
    _ZNSaIfEC1ERKS_ @65
    _ZNSaIfEC1Ev @66
    _ZNSaIfEC2ERKS_ @67
    _ZNSaIfED1Ev @68
    _ZNSaIfED2Ev @69
    _ZNSt10_Iter_baseIN9__gnu_cxx17__normal_iteratorIPKfSt6vectorIfSaIfEEEELb0EE7_S_baseES7_ @70
    _ZNSt10_Iter_baseIN9__gnu_cxx17__normal_iteratorIPKfSt6vectorIfSaIfEEEELb1EE7_S_baseES7_ @71
    _ZNSt10_Iter_baseIN9__gnu_cxx17__normal_iteratorIPfSt6vectorIfSaIfEEEELb1EE7_S_baseES6_ @72
    _ZNSt10_Iter_baseIPSt6vectorIfSaIfEELb0EE7_S_baseES3_ @73
    _ZNSt10_Iter_baseIPfLb0EE7_S_baseES0_ @74
    _ZNSt11__copy_moveILb0ELb1ESt26random_access_iterator_tagE8__copy_mIfEEPT_PKS3_S6_S4_ @75
    _ZNSt12_Destroy_auxILb0EE9__destroyIPSt6vectorIfSaIfEEEEvT_S6_ @76
    _ZNSt12_Destroy_auxILb1EE9__destroyIN9__gnu_cxx17__normal_iteratorIPfSt6vectorIfSaIfEEEEEEvT_S9_ @77
    _ZNSt12_Destroy_auxILb1EE9__destroyIPfEEvT_S3_ @78
    _ZNSt12_Vector_baseISt6vectorIfSaIfEESaIS2_EE11_M_allocateEy @79
    _ZNSt12_Vector_baseISt6vectorIfSaIfEESaIS2_EE12_Vector_implC1Ev @80
    _ZNSt12_Vector_baseISt6vectorIfSaIfEESaIS2_EE12_Vector_implD1Ev @81
    _ZNSt12_Vector_baseISt6vectorIfSaIfEESaIS2_EE13_M_deallocateEPS2_y @82
    _ZNSt12_Vector_baseISt6vectorIfSaIfEESaIS2_EE19_M_get_Tp_allocatorEv @83
    _ZNSt12_Vector_baseISt6vectorIfSaIfEESaIS2_EEC2Ev @84
    _ZNSt12_Vector_baseISt6vectorIfSaIfEESaIS2_EED2Ev @85
    _ZNSt12_Vector_baseIfSaIfEE11_M_allocateEy @86
    _ZNSt12_Vector_baseIfSaIfEE12_Vector_impl12_M_swap_dataERS2_ @87
    _ZNSt12_Vector_baseIfSaIfEE12_Vector_implC1EOS0_ @88
    _ZNSt12_Vector_baseIfSaIfEE12_Vector_implC1ERKS0_ @89
    _ZNSt12_Vector_baseIfSaIfEE12_Vector_implD1Ev @90
    _ZNSt12_Vector_baseIfSaIfEE13_M_deallocateEPfy @91
    _ZNSt12_Vector_baseIfSaIfEE17_M_create_storageEy @92
    _ZNSt12_Vector_baseIfSaIfEE19_M_get_Tp_allocatorEv @93
    _ZNSt12_Vector_baseIfSaIfEEC2EOS1_ @94
    _ZNSt12_Vector_baseIfSaIfEEC2ERKS0_ @95
    _ZNSt12_Vector_baseIfSaIfEEC2EyRKS0_ @96
    _ZNSt12_Vector_baseIfSaIfEED2Ev @97
    _ZNSt13move_iteratorIPSt6vectorIfSaIfEEEC1ES3_ @98
    _ZNSt13move_iteratorIPSt6vectorIfSaIfEEEppEv @99
    _ZNSt14numeric_limitsIfE3maxEv @100
    _ZNSt14numeric_limitsIfE8infinityEv @101
    _ZNSt16allocator_traitsISaISt6vectorIfSaIfEEEE10deallocateERS3_PS2_y @102
    _ZNSt16allocator_traitsISaISt6vectorIfSaIfEEEE11_S_max_sizeIKS3_vEEyRT_i @103
    _ZNSt16allocator_traitsISaISt6vectorIfSaIfEEEE8allocateERS3_y @104
    _ZNSt16allocator_traitsISaISt6vectorIfSaIfEEEE8max_sizeERKS3_ @105
    _ZNSt16allocator_traitsISaIfEE10deallocateERS0_Pfy @106
    _ZNSt16allocator_traitsISaIfEE37select_on_container_copy_constructionERKS0_ @107
    _ZNSt16allocator_traitsISaIfEE8allocateERS0_y @108
    _ZNSt16allocator_traitsISaIfEE9_S_selectIKS0_vEET_RS4_z @109
    _ZNSt20__copy_move_backwardILb1ELb0ESt26random_access_iterator_tagE13__copy_move_bIPSt6vectorIfSaIfEES6_EET0_T_S8_S7_ @110
    _ZNSt20__uninitialized_copyILb0EE13__uninit_copyIN9__gnu_cxx17__normal_iteratorIPKfSt6vectorIfSaIfEEEEPfEET0_T_SC_SB_ @111
    _ZNSt20__uninitialized_copyILb0EE13__uninit_copyIPfS2_EET0_T_S4_S3_ @112
    _ZNSt20__uninitialized_copyILb0EE13__uninit_copyISt13move_iteratorIPSt6vectorIfSaIfEEES6_EET0_T_S9_S8_ @113
    _ZNSt22__uninitialized_fill_nILb0EE15__uninit_fill_nIPSt6vectorIfSaIfEEyS4_EEvT_T0_RKT1_ @114
    _ZNSt22__uninitialized_fill_nILb1EE15__uninit_fill_nIPfyfEEvT_T0_RKT1_ @115
    _ZNSt4pairIifEC1IiRfvEEOT_OT0_ @116
    _ZNSt6vectorIS_IfSaIfEESaIS1_EE14_M_fill_insertEN9__gnu_cxx17__normal_iteratorIPS1_S3_EEyRKS1_ @117
    _ZNSt6vectorIS_IfSaIfEESaIS1_EE15_M_erase_at_endEPS1_ @118
    _ZNSt6vectorIS_IfSaIfEESaIS1_EE3endEv @119
    _ZNSt6vectorIS_IfSaIfEESaIS1_EE5beginEv @120
    _ZNSt6vectorIS_IfSaIfEESaIS1_EE6insertEN9__gnu_cxx17__normal_iteratorIPKS1_S3_EEyRS6_ @121
    _ZNSt6vectorIS_IfSaIfEESaIS1_EE6resizeEyRKS1_ @122
    _ZNSt6vectorIS_IfSaIfEESaIS1_EEC1Ev @123
    _ZNSt6vectorIS_IfSaIfEESaIS1_EED1Ev @124
    _ZNSt6vectorIfSaIfEE14_M_move_assignEOS1_St17integral_constantIbLb1EE @125
    _ZNSt6vectorIfSaIfEE15_M_erase_at_endEPf @126
    _ZNSt6vectorIfSaIfEE18_M_fill_initializeEyRKf @127
    _ZNSt6vectorIfSaIfEE20_M_allocate_and_copyIN9__gnu_cxx17__normal_iteratorIPKfS1_EEEEPfyT_S9_ @128
    _ZNSt6vectorIfSaIfEE3endEv @129
    _ZNSt6vectorIfSaIfEE5beginEv @130
    _ZNSt6vectorIfSaIfEE5clearEv @131
    _ZNSt6vectorIfSaIfEEC1EOS1_ @132
    _ZNSt6vectorIfSaIfEEC1ERKS0_ @133
    _ZNSt6vectorIfSaIfEEC1ERKS1_ @134
    _ZNSt6vectorIfSaIfEEC1EyRKfRKS0_ @135
    _ZNSt6vectorIfSaIfEED1Ev @136
    _ZNSt6vectorIfSaIfEEaSEOS1_ @137
    _ZNSt6vectorIfSaIfEEaSERKS1_ @138
    _ZSt10_ConstructISt6vectorIfSaIfEEIRKS2_EEvPT_DpOT0_ @139
    _ZSt10_ConstructISt6vectorIfSaIfEEIS2_EEvPT_DpOT0_ @140
    _ZSt10_ConstructIfIRKfEEvPT_DpOT0_ @141
    _ZSt10_ConstructIfIRfEEvPT_DpOT0_ @142
    _ZSt10__fill_n_aIPfyfEN9__gnu_cxx11__enable_ifIXsrSt11__is_scalarIT1_E7__valueET_E6__typeES6_T0_RKS4_ @143
    _ZSt11__addressofISt6vectorIfSaIfEEEPT_RS3_ @144
    _ZSt11__addressofIfEPT_RS0_ @145
    _ZSt11max_elementIPKiET_S2_S2_ @146
    _ZSt11min_elementIPKiET_S2_S2_ @147
    _ZSt12__miter_baseIN9__gnu_cxx17__normal_iteratorIPKfSt6vectorIfSaIfEEEEENSt11_Miter_baseIT_E13iterator_typeES9_ @148
    _ZSt12__miter_baseIPSt6vectorIfSaIfEEENSt11_Miter_baseIT_E13iterator_typeES5_ @149
    _ZSt12__miter_baseIPfENSt11_Miter_baseIT_E13iterator_typeES2_ @150
    _ZSt12__niter_baseIN9__gnu_cxx17__normal_iteratorIPKfSt6vectorIfSaIfEEEEENSt11_Niter_baseIT_E13iterator_typeES9_ @151
    _ZSt12__niter_baseIN9__gnu_cxx17__normal_iteratorIPfSt6vectorIfSaIfEEEEENSt11_Niter_baseIT_E13iterator_typeES8_ @152
    _ZSt12__niter_baseIPSt6vectorIfSaIfEEENSt11_Niter_baseIT_E13iterator_typeES5_ @153
    _ZSt12__niter_baseIPfENSt11_Niter_baseIT_E13iterator_typeES2_ @154
    _ZSt13__copy_move_aILb0EPKfPfET1_T0_S4_S3_ @155
    _ZSt13__copy_move_aILb0EPfS0_ET1_T0_S2_S1_ @156
    _ZSt13__max_elementIPKiN9__gnu_cxx5__ops15_Iter_less_iterEET_S5_S5_T0_ @157
    _ZSt13__min_elementIPKiN9__gnu_cxx5__ops15_Iter_less_iterEET_S5_S5_T0_ @158
    _ZSt13move_backwardIPSt6vectorIfSaIfEES3_ET0_T_S5_S4_ @159
    _ZSt14__copy_move_a2ILb0EN9__gnu_cxx17__normal_iteratorIPKfSt6vectorIfSaIfEEEENS1_IPfS6_EEET1_T0_SB_SA_ @160
    _ZSt14__copy_move_a2ILb0EPfS0_ET1_T0_S2_S1_ @161
    _ZSt15__alloc_on_copyISaIfEEvRT_RKS1_ @162
    _ZSt15__alloc_on_moveISaIfEEvRT_S2_ @163
    _ZSt18__do_alloc_on_copyISaIfEEvRT_RKS1_St17integral_constantIbLb0EE @164
    _ZSt18__do_alloc_on_moveISaIfEEvRT_S2_St17integral_constantIbLb1EE @165
    _ZSt18make_move_iteratorIPSt6vectorIfSaIfEEESt13move_iteratorIT_ES5_ @166
    _ZSt18uninitialized_copyIN9__gnu_cxx17__normal_iteratorIPKfSt6vectorIfSaIfEEEEPfET0_T_SA_S9_ @167
    _ZSt18uninitialized_copyIPfS0_ET0_T_S2_S1_ @168
    _ZSt18uninitialized_copyISt13move_iteratorIPSt6vectorIfSaIfEEES4_ET0_T_S7_S6_ @169
    _ZSt20uninitialized_fill_nIPSt6vectorIfSaIfEEyS2_EvT_T0_RKT1_ @170
    _ZSt20uninitialized_fill_nIPfyfEvT_T0_RKT1_ @171
    _ZSt22__copy_move_backward_aILb1EPSt6vectorIfSaIfEES3_ET1_T0_S5_S4_ @172
    _ZSt22__uninitialized_copy_aIN9__gnu_cxx17__normal_iteratorIPKfSt6vectorIfSaIfEEEEPffET0_T_SA_S9_RSaIT1_E @173
    _ZSt22__uninitialized_copy_aIPfS0_fET0_T_S2_S1_RSaIT1_E @174
    _ZSt22__uninitialized_copy_aISt13move_iteratorIPSt6vectorIfSaIfEEES4_S3_ET0_T_S7_S6_RSaIT1_E @175
    _ZSt22__uninitialized_move_aIPSt6vectorIfSaIfEES3_SaIS2_EET0_T_S6_S5_RT1_ @176
    _ZSt23__copy_move_backward_a2ILb1EPSt6vectorIfSaIfEES3_ET1_T0_S5_S4_ @177
    _ZSt24__uninitialized_fill_n_aIPSt6vectorIfSaIfEEyS2_S2_EvT_T0_RKT1_RSaIT2_E @178
    _ZSt24__uninitialized_fill_n_aIPfyffEvT_T0_RKT1_RSaIT2_E @179
    _ZSt32__make_move_if_noexcept_iteratorIPSt6vectorIfSaIfEESt13move_iteratorIS3_EET0_T_ @180
    _ZSt34__uninitialized_move_if_noexcept_aIPSt6vectorIfSaIfEES3_SaIS2_EET0_T_S6_S5_RT1_ @181
    _ZSt3maxIiERKT_S2_S2_ @182
    _ZSt3maxIiET_St16initializer_listIS0_E @183
    _ZSt3maxIyERKT_S2_S2_ @184
    _ZSt3minIiERKT_S2_S2_ @185
    _ZSt3minIiET_St16initializer_listIS0_E @186
    _ZSt4copyIN9__gnu_cxx17__normal_iteratorIPKfSt6vectorIfSaIfEEEENS1_IPfS6_EEET0_T_SB_SA_ @187
    _ZSt4copyIPfS0_ET0_T_S2_S1_ @188
    _ZSt4fillIN9__gnu_cxx17__normal_iteratorIPfSt6vectorIfSaIfEEEEfEvT_S7_RKT0_ @189
    _ZSt4fillIPSt6vectorIfSaIfEES2_EvT_S4_RKT0_ @190
    _ZSt4moveIR9SDL_PointEONSt16remove_referenceIT_E4typeEOS3_ @191
    _ZSt4moveIRPfEONSt16remove_referenceIT_E4typeEOS3_ @192
    _ZSt4moveIRSaIfEEONSt16remove_referenceIT_E4typeEOS3_ @193
    _ZSt4moveIRSt6vectorIfSaIfEEEONSt16remove_referenceIT_E4typeEOS5_ @194
    _ZSt4moveIRfEONSt16remove_referenceIT_E4typeEOS2_ @195
    _ZSt4moveIRiEONSt16remove_referenceIT_E4typeEOS2_ @196
    _ZSt4swapI9SDL_PointEvRT_S2_ @197
    _ZSt4swapIPfEvRT_S2_ @198
    _ZSt4swapIfEvRT_S1_ @199
    _ZSt4swapIiEvRT_S1_ @200
    _ZSt6fill_nIPfyfET_S1_T0_RKT1_ @201
    _ZSt7forwardIRKSt6vectorIfSaIfEEEOT_RNSt16remove_referenceIS5_E4typeE @202
    _ZSt7forwardIRKfEOT_RNSt16remove_referenceIS2_E4typeE @203
    _ZSt7forwardIRfEOT_RNSt16remove_referenceIS1_E4typeE @204
    _ZSt7forwardISt6vectorIfSaIfEEEOT_RNSt16remove_referenceIS3_E4typeE @205
    _ZSt7forwardIiEOT_RNSt16remove_referenceIS0_E4typeE @206
    _ZSt8_DestroyIN9__gnu_cxx17__normal_iteratorIPfSt6vectorIfSaIfEEEEEvT_S7_ @207
    _ZSt8_DestroyIN9__gnu_cxx17__normal_iteratorIPfSt6vectorIfSaIfEEEEfEvT_S7_RSaIT0_E @208
    _ZSt8_DestroyIPSt6vectorIfSaIfEEEvT_S4_ @209
    _ZSt8_DestroyIPSt6vectorIfSaIfEES2_EvT_S4_RSaIT0_E @210
    _ZSt8_DestroyIPfEvT_S1_ @211
    _ZSt8_DestroyIPffEvT_S1_RSaIT0_E @212
    _ZSt8_DestroyISt6vectorIfSaIfEEEvPT_ @213
    _ZSt8__fill_aIPSt6vectorIfSaIfEES2_EN9__gnu_cxx11__enable_ifIXntsrSt11__is_scalarIT0_E7__valueEvE6__typeET_SB_RKS7_ @214
    _ZSt8__fill_aIPffEN9__gnu_cxx11__enable_ifIXsrSt11__is_scalarIT0_E7__valueEvE6__typeET_S8_RKS4_ @215
    _ZSt9make_pairIiRfESt4pairINSt17__decay_and_stripIT_E6__typeENS2_IT0_E6__typeEEOS3_OS6_ @216
    _ZSteqIPSt6vectorIfSaIfEEEbRKSt13move_iteratorIT_ES8_ @217
    _ZStneIPSt6vectorIfSaIfEEEbRKSt13move_iteratorIT_ES8_ @218
    _ZStneIfEbRKSaIT_ES3_ @219
    _ZdlPvS_ @220
    _ZnwyPv @221
