EXPORTS
    _ZN10drawPixels4drawERSt6vectorI8TriangleSaIS1_EEPjPfiiRK6Camera @1
    _ZN10drawPixels8getPixelEv @2
    _ZN10drawPixelsC1Ev @3
    _ZN10drawPixelsC2Ev @4
    _ZN10drawPixelsD1Ev @5
    _ZN10drawPixelsD2Ev @6
    _ZN7Point2DC1Eii @7
    _ZN8MaterialC1EOS_ @8
    _ZN8MaterialD1Ev @9
    _ZN8MaterialaSEOS_ @10
    _ZN8TriangleC1EOS_ @11
    _ZN8TriangleD1Ev @12
    _ZN8TriangleaSEOS_ @13
    _ZN8vector3d12crossproductERKS_ @14
    _ZN8vector3d6changeES_ @15
    _ZN8vector3d6changeEfff @16
    _ZN8vector3d6lengthEv @17
    _ZN8vector3d7changeXEf @18
    _ZN8vector3d7changeYEf @19
    _ZN8vector3d7changeZEf @20
    _ZN8vector3d7reflectERKS_ @21
    _ZN8vector3d9normaliseERKS_ @22
    _ZN8vector3d9normalizeEv @23
    _ZN8vector3dC1Eff @24
    _ZN8vector3dC1Efff @25
    _ZN8vector3dC1Ev @26
    _ZN8vector3dC2Eff @27
    _ZN8vector3dC2Efff @28
    _ZN8vector3dC2Ev @29
    _ZN8vector3dD1Ev @30
    _ZN8vector3ddVERKf @31
    _ZN8vector3ddvERKf @32
    _ZN8vector3dmIERKS_ @33
    _ZN8vector3dmLERKf @34
    _ZN8vector3dneERKS_ @35
    _ZN8vector3dpLERKS_ @36
    _ZN8vector4dC1Effff @37
    _ZN8vector4dC1Ev @38
    _ZN8vector4dC2Effff @39
    _ZN8vector4dC2Ev @40
    _ZN9__gnu_cxx17__normal_iteratorIP8TriangleSt6vectorIS1_SaIS1_EEEC1ERKS2_ @41
    _ZN9__gnu_cxx17__normal_iteratorIP8TriangleSt6vectorIS1_SaIS1_EEEmmEv @42
    _ZN9__gnu_cxx17__normal_iteratorIP8TriangleSt6vectorIS1_SaIS1_EEEppEv @43
    _ZN9__gnu_cxxeqIP8TriangleSt6vectorIS1_SaIS1_EEEEbRKNS_17__normal_iteratorIT_T0_EESB_ @44
    _ZN9__gnu_cxxltIP8TriangleSt6vectorIS1_SaIS1_EEEEbRKNS_17__normal_iteratorIT_T0_EESB_ @45
    _ZN9__gnu_cxxmiIP8TriangleSt6vectorIS1_SaIS1_EEEENS_17__normal_iteratorIT_T0_E15difference_typeERKS9_SC_ @46
    _ZN9__gnu_cxxneIP8TriangleSt6vectorIS1_SaIS1_EEEEbRKNS_17__normal_iteratorIT_T0_EESB_ @47
    _ZNK8vector3d10dotproductERKS_ @48
    _ZNK8vector3d3dotERKS_S1_ @49
    _ZNK8vector3d5crossERKS_S1_ @50
    _ZNK8vector3deqERKS_ @51
    _ZNK8vector3dixEi @52
    _ZNK8vector3dltERKS_ @53
    _ZNK8vector3dmiERKS_ @54
    _ZNK8vector3dmlERKf @55
    _ZNK8vector3dplERKS_ @56
    _ZNK8vector4d9normalizeEv @57
    _ZNK8vector4dmiERKS_ @58
    _ZNK8vector4dmlEf @59
    _ZNK8vector4dplERKS_ @60
    _ZNK9__gnu_cxx17__normal_iteratorIP8TriangleSt6vectorIS1_SaIS1_EEE4baseEv @61
    _ZNK9__gnu_cxx17__normal_iteratorIP8TriangleSt6vectorIS1_SaIS1_EEEdeEv @62
    _ZNK9__gnu_cxx17__normal_iteratorIP8TriangleSt6vectorIS1_SaIS1_EEEmiEx @63
    _ZNK9__gnu_cxx17__normal_iteratorIP8TriangleSt6vectorIS1_SaIS1_EEEplEx @64
    _ZNSt10_Iter_baseIN9__gnu_cxx17__normal_iteratorIP8TriangleSt6vectorIS2_SaIS2_EEEELb0EE7_S_baseES7_ @65
    _ZNSt10_Iter_baseIN9__gnu_cxx17__normal_iteratorIP8TriangleSt6vectorIS2_SaIS2_EEEELb1EE7_S_baseES7_ @66
    _ZNSt20__copy_move_backwardILb1ELb0ESt26random_access_iterator_tagE13__copy_move_bIP8TriangleS4_EET0_T_S6_S5_ @67
    _ZNSt6vectorI8TriangleSaIS0_EE3endEv @68
    _ZNSt6vectorI8TriangleSaIS0_EE5beginEv @69
    _ZSt12__miter_baseIN9__gnu_cxx17__normal_iteratorIP8TriangleSt6vectorIS2_SaIS2_EEEEENSt11_Miter_baseIT_E13iterator_typeES9_ @70
    _ZSt12__niter_baseIN9__gnu_cxx17__normal_iteratorIP8TriangleSt6vectorIS2_SaIS2_EEEEENSt11_Niter_baseIT_E13iterator_typeES9_ @71
    _ZSt13move_backwardIN9__gnu_cxx17__normal_iteratorIP8TriangleSt6vectorIS2_SaIS2_EEEES7_ET0_T_S9_S8_ @72
    _ZSt22__copy_move_backward_aILb1EP8TriangleS1_ET1_T0_S3_S2_ @73
    _ZSt23__copy_move_backward_a2ILb1EN9__gnu_cxx17__normal_iteratorIP8TriangleSt6vectorIS2_SaIS2_EEEES7_ET1_T0_S9_S8_ @74
    _ZSt3maxIfERKT_S2_S2_ @75
    _ZSt3minIiERKT_S2_S2_ @76
    _ZSt4__lgx @77
    _ZSt4moveIR8TriangleEONSt16remove_referenceIT_E4typeEOS3_ @78
    _ZSt4sqrtf @79
    _ZSt4swapI8TriangleEvRT_S2_ @80
    _ZSt9iter_swapIN9__gnu_cxx17__normal_iteratorIP8TriangleSt6vectorIS2_SaIS2_EEEES7_EvT_T0_ @81
    _ZTISt11logic_error @82 DATA
    _ZTISt12out_of_range @83 DATA
    _ZTISt9exception @84 DATA
    _ZTSSt11logic_error @85 DATA
    _ZTSSt12out_of_range @86 DATA
    _ZTSSt9exception @87 DATA
    _ZlsRSo8vector3d @88
